; Listing generated by Microsoft (R) Optimizing Compiler Version 19.44.35217.0 

include listing.inc

INCLUDELIB MSVCRTD
INCLUDELIB OLDNAMES

PUBLIC	_Avx2WmemEnabledWeakValue
;	COMDAT _Avx2WmemEnabledWeakValue
_BSS	SEGMENT
_Avx2WmemEnabledWeakValue DD 01H DUP (?)
_BSS	ENDS
msvcjmc	SEGMENT
__8C83BECC_concurrencysal@h DB 01H
__608E3340_sal@h DB 01H
__FB67E29A_vadefs@h DB 01H
__1D1B619C_vcruntime@h DB 01H
__F9C62481_xkeycheck@h DB 01H
__3D7FC843_yvals_core@h DB 01H
__735960E1_corecrt@h DB 01H
__CB8A55F3_float@h DB 01H
__30B8F8B3_cfloat DB 01H
__3D1CA2C3_limits@h DB 01H
__56354F6D_climits DB 01H
__2EA5EA2E_vcruntime_new@h DB 01H
__52221516_vcruntime_new_debug@h DB 01H
__15FC02C9_crtdbg@h DB 01H
__09890252_crtdefs@h DB 01H
__99AC0F50_use_ansi@h DB 01H
__649ADB20_yvals@h DB 01H
__1D9A7FA2_corecrt_math@h DB 01H
__2E93F1C0_math@h DB 01H
__211DB995_corecrt_malloc@h DB 01H
__955456CD_stddef@h DB 01H
__99AED4FB_corecrt_search@h DB 01H
__8B813BF6_corecrt_wstdlib@h DB 01H
__E8FB0A68_stdlib@h DB 01H
__D2DA6D9F_cstdlib DB 01H
__62A23D19_xtr1common DB 01H
__47E843D2_intrin0@inl@h DB 01H
__10A4BB59_intrin0@h DB 01H
__02343DF7_cmath DB 01H
__60B45B40_corecrt_stdio_config@h DB 01H
__CFA3741E_corecrt_wstdio@h DB 01H
__B3FE3303_stdio@h DB 01H
__43FC3334_cstdio DB 01H
__13DE2371_errno@h DB 01H
__8C6AE390_vcruntime_string@h DB 01H
__8ACB2152_corecrt_memcpy_s@h DB 01H
__EA6C9D17_corecrt_memory@h DB 01H
__0DF2AF52_corecrt_wstring@h DB 01H
__6E889ECC_string@h DB 01H
__9E48C57F_cstring DB 01H
__8BDC0229_corecrt_wconio@h DB 01H
__108B2620_corecrt_wctype@h DB 01H
__547F429B_corecrt_wdirect@h DB 01H
__260A2221_corecrt_share@h DB 01H
__EB642103_corecrt_wio@h DB 01H
__F49D648E_corecrt_wprocess@h DB 01H
__9E5BC8DA_corecrt_wtime@h DB 01H
__2A5E3E75_types@h DB 01H
__B16B2B9B_stat@h DB 01H
__130964FF_setjmp@h DB 01H
__5C8CA4D3_mmintrin@h DB 01H
__7CD62D9E_malloc@h DB 01H
__9DCE0DC8_xmmintrin@h DB 01H
__F8AC8404_emmintrin@h DB 01H
__270DEC8D_pmmintrin@h DB 01H
__97D49F0F_tmmintrin@h DB 01H
__BEEF8A8C_smmintrin@h DB 01H
__DB8D0340_nmmintrin@h DB 01H
__0E36F90E_wmmintrin@h DB 01H
__C5A2B409_zmmintrin@h DB 01H
__F2B616C3_immintrin@h DB 01H
__4875F786_ammintrin@h DB 01H
__353FD888_intrin@h DB 01H
__4DD8D0FE_wchar@h DB 01H
__D977E567_cwchar DB 01H
__9AB76051_iosfwd DB 01H
__7711B732_cstddef DB 01H
__9645C8FF_initializer_list DB 01H
__836A8CFC_stdint@h DB 01H
__6F848CE2_cstdint DB 01H
__B76FE24A_type_traits DB 01H
__E5D7E814_utility DB 01H
__C92E16D2___msvc_iter_core@hpp DB 01H
__EFB2F401_xutility DB 01H
__FE1E4341_iterator DB 01H
__85852BDB_share@h DB 01H
__729AB2C8___msvc_system_error_abi@hpp DB 01H
__DEDD47CF_cerrno DB 01H
__C071288D_corecrt_terminate@h DB 01H
__19EE6F19_eh@h DB 01H
__5ACC1044_vcruntime_exception@h DB 01H
__C1D66CC4_exception DB 01H
__8BF225E6___msvc_sanitizer_annotate_container@hpp DB 01H
__9C6F385E___msvc_string_view@hpp DB 01H
__565EB5D7_limits DB 01H
__29151002_new DB 01H
__CBDAE012_xatomic@h DB 01H
__8F428BD7_xmemory DB 01H
__FB910D4B_xstring DB 01H
__48985699_stdexcept DB 01H
__7EE71613_xcall_once@h DB 01H
__CC0FCE2F_xerrc@h DB 01H
__CCCF7540___msvc_threads_core@hpp DB 01H
__1FF36214_time@h DB 01H
__C487A1FF_ctime DB 01H
__59761740_xtimec@h DB 01H
__F8E238E3_xthreads@h DB 01H
__3D6BE915_atomic DB 01H
__C1BA0433_system_error DB 01H
__DDC0F04D_vcruntime_typeinfo@h DB 01H
__9F6D0718_typeinfo DB 01H
__EAF0B959_memory DB 01H
__C6B5EE56_xfacet DB 01H
__C70396E3___msvc_xlocinfo_types@hpp DB 01H
__6CD6613D_ctype@h DB 01H
__4C37D493_cctype DB 01H
__FFBDF365_locale@h DB 01H
__4176B14E_clocale DB 01H
__80E4E4D0_xlocinfo DB 01H
__24AF797A_xlocale DB 01H
__B90193C3_xiosbase DB 01H
__4A38EE25_streambuf DB 01H
__BA281F6D_xlocnum DB 01H
__D1D82A14_ios DB 01H
__00DCFE7C___msvc_ostream@hpp DB 01H
__546F9684_istream DB 01H
__37BFA3BE_ostream DB 01H
__8DCB8E1E_iostream DB 01H
__77FA1031_main@cpp DB 01H
msvcjmc	ENDS
PUBLIC	?__empty_global_delete@@YAXPEAX@Z		; __empty_global_delete
PUBLIC	?__empty_global_delete@@YAXPEAX_K@Z		; __empty_global_delete
PUBLIC	?length@?$_Narrow_char_traits@DH@std@@SA_KQEBD@Z ; std::_Narrow_char_traits<char,int>::length
PUBLIC	?eq_int_type@?$_Narrow_char_traits@DH@std@@SA_NHH@Z ; std::_Narrow_char_traits<char,int>::eq_int_type
PUBLIC	?eof@?$_Narrow_char_traits@DH@std@@SAHXZ	; std::_Narrow_char_traits<char,int>::eof
PUBLIC	?visokos@@YA_NH@Z				; visokos
PUBLIC	?dayNum@@YAHHHPEAH@Z				; dayNum
PUBLIC	?isValid@@YA_NAEAH@Z				; isValid
PUBLIC	?checkDate@@YA_NHHHPEAH@Z			; checkDate
PUBLIC	main
PUBLIC	??$?6U?$char_traits@D@std@@@std@@YAAEAV?$basic_ostream@DU?$char_traits@D@std@@@0@AEAV10@PEBD@Z ; std::operator<<<std::char_traits<char> >
PUBLIC	??$endl@DU?$char_traits@D@std@@@std@@YAAEAV?$basic_ostream@DU?$char_traits@D@std@@@0@AEAV10@@Z ; std::endl<char,std::char_traits<char> >
PUBLIC	??0_Sentry_base@?$basic_ostream@DU?$char_traits@D@std@@@std@@QEAA@AEAV12@@Z ; std::basic_ostream<char,std::char_traits<char> >::_Sentry_base::_Sentry_base
PUBLIC	??1_Sentry_base@?$basic_ostream@DU?$char_traits@D@std@@@std@@QEAA@XZ ; std::basic_ostream<char,std::char_traits<char> >::_Sentry_base::~_Sentry_base
PUBLIC	??0sentry@?$basic_ostream@DU?$char_traits@D@std@@@std@@QEAA@AEAV12@@Z ; std::basic_ostream<char,std::char_traits<char> >::sentry::sentry
PUBLIC	??1sentry@?$basic_ostream@DU?$char_traits@D@std@@@std@@QEAA@XZ ; std::basic_ostream<char,std::char_traits<char> >::sentry::~sentry
PUBLIC	??Bsentry@?$basic_ostream@DU?$char_traits@D@std@@@std@@QEBA_NXZ ; std::basic_ostream<char,std::char_traits<char> >::sentry::operator bool
PUBLIC	??$addressof@V?$basic_ostream@DU?$char_traits@D@std@@@std@@@std@@YAPEAV?$basic_ostream@DU?$char_traits@D@std@@@0@AEAV10@@Z ; std::addressof<std::basic_ostream<char,std::char_traits<char> > >
PUBLIC	__JustMyCode_Default
PUBLIC	??_C@_03EJKFMIHK@rus@				; `string'
PUBLIC	??_C@_0CC@GJFPIFCJ@?B?b?e?d?h?r?e?5?d?$OA?r?s?5?b?5?t?n?p?l?$OA?r?e?5?D?D?L?L?C?C?C?C@ ; `string'
PUBLIC	??_C@_0BL@DBPAMPKJ@?M?e?j?n?p?p?e?j?r?m?$OA?$PP?5?r?e?j?s?y?$OA?$PP?5?d?$OA?r?$OA?$CB@ ; `string'
PUBLIC	??_C@_0DC@FBLNNKIM@?B?b?e?d?h?r?e?5?d?$OA?r?s?5?b?$OA?x?e?c?n?5?p?n?f?d?e?m?h?$PP?5?b?5@ ; `string'
PUBLIC	??_C@_0BL@PBANEPHD@?B?b?e?d?h?r?e?5?o?e?p?e?m?e?q?e?m?m?s?$PO?5?d?$OA?r?s?5@ ; `string'
PUBLIC	??_C@_0BM@PAANHPGK@?M?e?j?n?p?p?e?j?r?m?$OA?$PP?5?d?$OA?r?$OA?5?p?n?f?d?e?m?h?$PP?$CB@ ; `string'
PUBLIC	??_C@_0BE@OADAADDF@?B?$PL?5?e?y?e?5?m?e?5?p?n?d?h?k?h?q?$PM?$CB@ ; `string'
PUBLIC	??_C@_01LFCBOECM@?4@				; `string'
PUBLIC	??_C@_0BC@PIDAOMPC@?6?D?$OA?r?$OA?5?j?n?p?p?e?j?r?m?$OA?3?5@ ; `string'
PUBLIC	??_C@_0P@KPEAGGJF@?C?n?d?5?b?h?q?n?j?n?q?m?$PL?i@ ; `string'
PUBLIC	??_C@_0BC@GEBLIKEH@?C?n?d?5?m?e?5?b?h?q?n?j?n?q?m?$PL?i@ ; `string'
PUBLIC	??_C@_0BP@GMPPFCEC@?O?n?p?$PP?d?j?n?b?$PL?i?5?m?n?l?e?p?5?d?m?$PP?5?b?5?c?n?d?s?5?$DN?5@ ; `string'
PUBLIC	??_C@_0BH@NEDOCFPJ@?D?e?m?$PM?5?p?n?f?d?e?m?h?$PP?5?q?e?c?n?d?m?$PP?$CB@ ; `string'
PUBLIC	??_C@_0BJ@MPCGFPHD@?6?D?m?e?i?5?d?n?5?d?m?$PP?5?p?n?f?d?e?m?h?$PP?5?$DN?5@ ; `string'
PUBLIC	??_C@_0BH@OAAKFLBJ@?N?x?h?a?j?$OA?$CB?5?B?b?e?d?h?r?e?5?w?h?q?k?n?4@ ; `string'
EXTRN	strlen:PROC
EXTRN	?uncaught_exception@std@@YA_NXZ:PROC		; std::uncaught_exception
EXTRN	__imp_setlocale:PROC
EXTRN	__imp_?good@ios_base@std@@QEBA_NXZ:PROC
EXTRN	__imp_?fail@ios_base@std@@QEBA_NXZ:PROC
EXTRN	__imp_?flags@ios_base@std@@QEBAHXZ:PROC
EXTRN	__imp_?width@ios_base@std@@QEBA_JXZ:PROC
EXTRN	__imp_?width@ios_base@std@@QEAA_J_J@Z:PROC
EXTRN	__imp_?sputc@?$basic_streambuf@DU?$char_traits@D@std@@@std@@QEAAHD@Z:PROC
EXTRN	__imp_?sputn@?$basic_streambuf@DU?$char_traits@D@std@@@std@@QEAA_JPEBD_J@Z:PROC
EXTRN	__imp_?clear@?$basic_ios@DU?$char_traits@D@std@@@std@@QEAAXH_N@Z:PROC
EXTRN	__imp_?setstate@?$basic_ios@DU?$char_traits@D@std@@@std@@QEAAXH_N@Z:PROC
EXTRN	__imp_?tie@?$basic_ios@DU?$char_traits@D@std@@@std@@QEBAPEAV?$basic_ostream@DU?$char_traits@D@std@@@2@XZ:PROC
EXTRN	__imp_?rdbuf@?$basic_ios@DU?$char_traits@D@std@@@std@@QEBAPEAV?$basic_streambuf@DU?$char_traits@D@std@@@2@XZ:PROC
EXTRN	__imp_?fill@?$basic_ios@DU?$char_traits@D@std@@@std@@QEBADXZ:PROC
EXTRN	__imp_?widen@?$basic_ios@DU?$char_traits@D@std@@@std@@QEBADD@Z:PROC
EXTRN	__imp_?_Osfx@?$basic_ostream@DU?$char_traits@D@std@@@std@@QEAAXXZ:PROC
EXTRN	__imp_??6?$basic_ostream@DU?$char_traits@D@std@@@std@@QEAAAEAV01@P6AAEAV01@AEAV01@@Z@Z:PROC
EXTRN	__imp_??6?$basic_ostream@DU?$char_traits@D@std@@@std@@QEAAAEAV01@H@Z:PROC
EXTRN	__imp_?put@?$basic_ostream@DU?$char_traits@D@std@@@std@@QEAAAEAV12@D@Z:PROC
EXTRN	__imp_?flush@?$basic_ostream@DU?$char_traits@D@std@@@std@@QEAAAEAV12@XZ:PROC
EXTRN	__imp_??5?$basic_istream@DU?$char_traits@D@std@@@std@@QEAAAEAV01@AEAH@Z:PROC
EXTRN	__imp_?ignore@?$basic_istream@DU?$char_traits@D@std@@@std@@QEAAAEAV12@_JH@Z:PROC
EXTRN	_RTC_CheckStackVars:PROC
EXTRN	_RTC_InitBase:PROC
EXTRN	_RTC_Shutdown:PROC
EXTRN	_RTC_UninitUse:PROC
EXTRN	__CheckForDebuggerJustMyCode:PROC
EXTRN	__CxxFrameHandler4:PROC
EXTRN	__GSHandlerCheck:PROC
EXTRN	__GSHandlerCheck_EH4:PROC
EXTRN	__security_check_cookie:PROC
EXTRN	__imp_?cin@std@@3V?$basic_istream@DU?$char_traits@D@std@@@1@A:BYTE
EXTRN	__imp_?cout@std@@3V?$basic_ostream@DU?$char_traits@D@std@@@1@A:BYTE
EXTRN	__security_cookie:QWORD
;	COMDAT pdata
pdata	SEGMENT
$pdata$?__empty_global_delete@@YAXPEAX@Z DD imagerel $LN3
	DD	imagerel $LN3+42
	DD	imagerel $unwind$?__empty_global_delete@@YAXPEAX@Z
pdata	ENDS
;	COMDAT pdata
pdata	SEGMENT
$pdata$?__empty_global_delete@@YAXPEAX_K@Z DD imagerel $LN3
	DD	imagerel $LN3+47
	DD	imagerel $unwind$?__empty_global_delete@@YAXPEAX_K@Z
pdata	ENDS
;	COMDAT pdata
pdata	SEGMENT
$pdata$?length@?$_Narrow_char_traits@DH@std@@SA_KQEBD@Z DD imagerel $LN4
	DD	imagerel $LN4+54
	DD	imagerel $unwind$?length@?$_Narrow_char_traits@DH@std@@SA_KQEBD@Z
pdata	ENDS
;	COMDAT pdata
pdata	SEGMENT
$pdata$?eq_int_type@?$_Narrow_char_traits@DH@std@@SA_NHH@Z DD imagerel $LN6
	DD	imagerel $LN6+88
	DD	imagerel $unwind$?eq_int_type@?$_Narrow_char_traits@DH@std@@SA_NHH@Z
pdata	ENDS
;	COMDAT pdata
pdata	SEGMENT
$pdata$?eof@?$_Narrow_char_traits@DH@std@@SAHXZ DD imagerel $LN4
	DD	imagerel $LN4+43
	DD	imagerel $unwind$?eof@?$_Narrow_char_traits@DH@std@@SAHXZ
pdata	ENDS
;	COMDAT pdata
pdata	SEGMENT
$pdata$?visokos@@YA_NH@Z DD imagerel $LN6
	DD	imagerel $LN6+131
	DD	imagerel $unwind$?visokos@@YA_NH@Z
pdata	ENDS
;	COMDAT pdata
pdata	SEGMENT
$pdata$?dayNum@@YAHHHPEAH@Z DD imagerel $LN6
	DD	imagerel $LN6+126
	DD	imagerel $unwind$?dayNum@@YAHHHPEAH@Z
pdata	ENDS
;	COMDAT pdata
pdata	SEGMENT
$pdata$?isValid@@YA_NAEAH@Z DD imagerel $LN4
	DD	imagerel $LN4+215
	DD	imagerel $unwind$?isValid@@YA_NAEAH@Z
pdata	ENDS
;	COMDAT pdata
pdata	SEGMENT
$pdata$?checkDate@@YA_NHHHPEAH@Z DD imagerel $LN6
	DD	imagerel $LN6+129
	DD	imagerel $unwind$?checkDate@@YA_NHHHPEAH@Z
pdata	ENDS
;	COMDAT pdata
pdata	SEGMENT
$pdata$main DD	imagerel $LN52
	DD	imagerel $LN52+2242
	DD	imagerel $unwind$main
pdata	ENDS
;	COMDAT pdata
pdata	SEGMENT
$pdata$??$?6U?$char_traits@D@std@@@std@@YAAEAV?$basic_ostream@DU?$char_traits@D@std@@@0@AEAV10@PEBD@Z DD imagerel $LN25
	DD	imagerel $LN25+945
	DD	imagerel $unwind$??$?6U?$char_traits@D@std@@@std@@YAAEAV?$basic_ostream@DU?$char_traits@D@std@@@0@AEAV10@PEBD@Z
pdata	ENDS
;	COMDAT pdata
pdata	SEGMENT
$pdata$?dtor$0@?0???$?6U?$char_traits@D@std@@@std@@YAAEAV?$basic_ostream@DU?$char_traits@D@std@@@0@AEAV10@PEBD@Z@4HA DD imagerel ?dtor$0@?0???$?6U?$char_traits@D@std@@@std@@YAAEAV?$basic_ostream@DU?$char_traits@D@std@@@0@AEAV10@PEBD@Z@4HA
	DD	imagerel ?dtor$0@?0???$?6U?$char_traits@D@std@@@std@@YAAEAV?$basic_ostream@DU?$char_traits@D@std@@@0@AEAV10@PEBD@Z@4HA+36
	DD	imagerel $unwind$?dtor$0@?0???$?6U?$char_traits@D@std@@@std@@YAAEAV?$basic_ostream@DU?$char_traits@D@std@@@0@AEAV10@PEBD@Z@4HA
pdata	ENDS
;	COMDAT pdata
pdata	SEGMENT
$pdata$?catch$1@?0???$?6U?$char_traits@D@std@@@std@@YAAEAV?$basic_ostream@DU?$char_traits@D@std@@@0@AEAV10@PEBD@Z@4HA DD imagerel ?catch$1@?0???$?6U?$char_traits@D@std@@@std@@YAAEAV?$basic_ostream@DU?$char_traits@D@std@@@0@AEAV10@PEBD@Z@4HA
	DD	imagerel ?catch$1@?0???$?6U?$char_traits@D@std@@@std@@YAAEAV?$basic_ostream@DU?$char_traits@D@std@@@0@AEAV10@PEBD@Z@4HA+80
	DD	imagerel $unwind$?catch$1@?0???$?6U?$char_traits@D@std@@@std@@YAAEAV?$basic_ostream@DU?$char_traits@D@std@@@0@AEAV10@PEBD@Z@4HA
pdata	ENDS
;	COMDAT pdata
pdata	SEGMENT
$pdata$??$endl@DU?$char_traits@D@std@@@std@@YAAEAV?$basic_ostream@DU?$char_traits@D@std@@@0@AEAV10@@Z DD imagerel $LN3
	DD	imagerel $LN3+118
	DD	imagerel $unwind$??$endl@DU?$char_traits@D@std@@@std@@YAAEAV?$basic_ostream@DU?$char_traits@D@std@@@0@AEAV10@@Z
pdata	ENDS
;	COMDAT pdata
pdata	SEGMENT
$pdata$??0_Sentry_base@?$basic_ostream@DU?$char_traits@D@std@@@std@@QEAA@AEAV12@@Z DD imagerel $LN4
	DD	imagerel $LN4+150
	DD	imagerel $unwind$??0_Sentry_base@?$basic_ostream@DU?$char_traits@D@std@@@std@@QEAA@AEAV12@@Z
pdata	ENDS
;	COMDAT pdata
pdata	SEGMENT
$pdata$??1_Sentry_base@?$basic_ostream@DU?$char_traits@D@std@@@std@@QEAA@XZ DD imagerel $LN5
	DD	imagerel $LN5+121
	DD	imagerel $unwind$??1_Sentry_base@?$basic_ostream@DU?$char_traits@D@std@@@std@@QEAA@XZ
pdata	ENDS
;	COMDAT pdata
pdata	SEGMENT
$pdata$??0sentry@?$basic_ostream@DU?$char_traits@D@std@@@std@@QEAA@AEAV12@@Z DD imagerel $LN7
	DD	imagerel $LN7+268
	DD	imagerel $unwind$??0sentry@?$basic_ostream@DU?$char_traits@D@std@@@std@@QEAA@AEAV12@@Z
pdata	ENDS
;	COMDAT pdata
pdata	SEGMENT
$pdata$?dtor$0@?0???0sentry@?$basic_ostream@DU?$char_traits@D@std@@@std@@QEAA@AEAV12@@Z@4HA DD imagerel ?dtor$0@?0???0sentry@?$basic_ostream@DU?$char_traits@D@std@@@std@@QEAA@AEAV12@@Z@4HA
	DD	imagerel ?dtor$0@?0???0sentry@?$basic_ostream@DU?$char_traits@D@std@@@std@@QEAA@AEAV12@@Z@4HA+39
	DD	imagerel $unwind$?dtor$0@?0???0sentry@?$basic_ostream@DU?$char_traits@D@std@@@std@@QEAA@AEAV12@@Z@4HA
pdata	ENDS
;	COMDAT pdata
pdata	SEGMENT
$pdata$??1sentry@?$basic_ostream@DU?$char_traits@D@std@@@std@@QEAA@XZ DD imagerel $LN7
	DD	imagerel $LN7+118
	DD	imagerel $unwind$??1sentry@?$basic_ostream@DU?$char_traits@D@std@@@std@@QEAA@XZ
pdata	ENDS
;	COMDAT pdata
pdata	SEGMENT
$pdata$??Bsentry@?$basic_ostream@DU?$char_traits@D@std@@@std@@QEBA_NXZ DD imagerel $LN3
	DD	imagerel $LN3+53
	DD	imagerel $unwind$??Bsentry@?$basic_ostream@DU?$char_traits@D@std@@@std@@QEBA_NXZ
pdata	ENDS
;	COMDAT pdata
pdata	SEGMENT
$pdata$??$addressof@V?$basic_ostream@DU?$char_traits@D@std@@@std@@@std@@YAPEAV?$basic_ostream@DU?$char_traits@D@std@@@0@AEAV10@@Z DD imagerel $LN4
	DD	imagerel $LN4+49
	DD	imagerel $unwind$??$addressof@V?$basic_ostream@DU?$char_traits@D@std@@@std@@@std@@YAPEAV?$basic_ostream@DU?$char_traits@D@std@@@0@AEAV10@@Z
pdata	ENDS
;	COMDAT rtc$TMZ
rtc$TMZ	SEGMENT
_RTC_Shutdown.rtc$TMZ DQ FLAT:_RTC_Shutdown
rtc$TMZ	ENDS
;	COMDAT rtc$IMZ
rtc$IMZ	SEGMENT
_RTC_InitBase.rtc$IMZ DQ FLAT:_RTC_InitBase
rtc$IMZ	ENDS
;	COMDAT ??_C@_0BH@OAAKFLBJ@?N?x?h?a?j?$OA?$CB?5?B?b?e?d?h?r?e?5?w?h?q?k?n?4@
CONST	SEGMENT
??_C@_0BH@OAAKFLBJ@?N?x?h?a?j?$OA?$CB?5?B?b?e?d?h?r?e?5?w?h?q?k?n?4@ DB 0ceH
	DB	0f8H, 0e8H, 0e1H, 0eaH, 0e0H, '! ', 0c2H, 0e2H, 0e5H, 0e4H, 0e8H
	DB	0f2H, 0e5H, ' ', 0f7H, 0e8H, 0f1H, 0ebH, 0eeH, '.', 00H ; `string'
CONST	ENDS
;	COMDAT ??_C@_0BJ@MPCGFPHD@?6?D?m?e?i?5?d?n?5?d?m?$PP?5?p?n?f?d?e?m?h?$PP?5?$DN?5@
CONST	SEGMENT
??_C@_0BJ@MPCGFPHD@?6?D?m?e?i?5?d?n?5?d?m?$PP?5?p?n?f?d?e?m?h?$PP?5?$DN?5@ DB 0aH
	DB	0c4H, 0edH, 0e5H, 0e9H, ' ', 0e4H, 0eeH, ' ', 0e4H, 0edH, 0ffH
	DB	' ', 0f0H, 0eeH, 0e6H, 0e4H, 0e5H, 0edH, 0e8H, 0ffH, ' = ', 00H ; `string'
CONST	ENDS
;	COMDAT ??_C@_0BH@NEDOCFPJ@?D?e?m?$PM?5?p?n?f?d?e?m?h?$PP?5?q?e?c?n?d?m?$PP?$CB@
CONST	SEGMENT
??_C@_0BH@NEDOCFPJ@?D?e?m?$PM?5?p?n?f?d?e?m?h?$PP?5?q?e?c?n?d?m?$PP?$CB@ DB 0c4H
	DB	0e5H, 0edH, 0fcH, ' ', 0f0H, 0eeH, 0e6H, 0e4H, 0e5H, 0edH, 0e8H
	DB	0ffH, ' ', 0f1H, 0e5H, 0e3H, 0eeH, 0e4H, 0edH, 0ffH, '!', 00H ; `string'
CONST	ENDS
;	COMDAT ??_C@_0BP@GMPPFCEC@?O?n?p?$PP?d?j?n?b?$PL?i?5?m?n?l?e?p?5?d?m?$PP?5?b?5?c?n?d?s?5?$DN?5@
CONST	SEGMENT
??_C@_0BP@GMPPFCEC@?O?n?p?$PP?d?j?n?b?$PL?i?5?m?n?l?e?p?5?d?m?$PP?5?b?5?c?n?d?s?5?$DN?5@ DB 0cfH
	DB	0eeH, 0f0H, 0ffH, 0e4H, 0eaH, 0eeH, 0e2H, 0fbH, 0e9H, ' ', 0edH
	DB	0eeH, 0ecH, 0e5H, 0f0H, ' ', 0e4H, 0edH, 0ffH, ' ', 0e2H, ' ', 0e3H
	DB	0eeH, 0e4H, 0f3H, ' = ', 00H			; `string'
CONST	ENDS
;	COMDAT ??_C@_0BC@GEBLIKEH@?C?n?d?5?m?e?5?b?h?q?n?j?n?q?m?$PL?i@
CONST	SEGMENT
??_C@_0BC@GEBLIKEH@?C?n?d?5?m?e?5?b?h?q?n?j?n?q?m?$PL?i@ DB 0c3H, 0eeH, 0e4H
	DB	' ', 0edH, 0e5H, ' ', 0e2H, 0e8H, 0f1H, 0eeH, 0eaH, 0eeH, 0f1H
	DB	0edH, 0fbH, 0e9H, 00H			; `string'
CONST	ENDS
;	COMDAT ??_C@_0P@KPEAGGJF@?C?n?d?5?b?h?q?n?j?n?q?m?$PL?i@
CONST	SEGMENT
??_C@_0P@KPEAGGJF@?C?n?d?5?b?h?q?n?j?n?q?m?$PL?i@ DB 0c3H, 0eeH, 0e4H, ' '
	DB	0e2H, 0e8H, 0f1H, 0eeH, 0eaH, 0eeH, 0f1H, 0edH, 0fbH, 0e9H, 00H ; `string'
CONST	ENDS
;	COMDAT ??_C@_0BC@PIDAOMPC@?6?D?$OA?r?$OA?5?j?n?p?p?e?j?r?m?$OA?3?5@
CONST	SEGMENT
??_C@_0BC@PIDAOMPC@?6?D?$OA?r?$OA?5?j?n?p?p?e?j?r?m?$OA?3?5@ DB 0aH, 0c4H
	DB	0e0H, 0f2H, 0e0H, ' ', 0eaH, 0eeH, 0f0H, 0f0H, 0e5H, 0eaH, 0f2H
	DB	0edH, 0e0H, ': ', 00H			; `string'
CONST	ENDS
;	COMDAT ??_C@_01LFCBOECM@?4@
CONST	SEGMENT
??_C@_01LFCBOECM@?4@ DB '.', 00H			; `string'
CONST	ENDS
;	COMDAT ??_C@_0BE@OADAADDF@?B?$PL?5?e?y?e?5?m?e?5?p?n?d?h?k?h?q?$PM?$CB@
CONST	SEGMENT
??_C@_0BE@OADAADDF@?B?$PL?5?e?y?e?5?m?e?5?p?n?d?h?k?h?q?$PM?$CB@ DB 0c2H, 0fbH
	DB	' ', 0e5H, 0f9H, 0e5H, ' ', 0edH, 0e5H, ' ', 0f0H, 0eeH, 0e4H, 0e8H
	DB	0ebH, 0e8H, 0f1H, 0fcH, '!', 00H		; `string'
CONST	ENDS
;	COMDAT ??_C@_0BM@PAANHPGK@?M?e?j?n?p?p?e?j?r?m?$OA?$PP?5?d?$OA?r?$OA?5?p?n?f?d?e?m?h?$PP?$CB@
CONST	SEGMENT
??_C@_0BM@PAANHPGK@?M?e?j?n?p?p?e?j?r?m?$OA?$PP?5?d?$OA?r?$OA?5?p?n?f?d?e?m?h?$PP?$CB@ DB 0cdH
	DB	0e5H, 0eaH, 0eeH, 0f0H, 0f0H, 0e5H, 0eaH, 0f2H, 0edH, 0e0H, 0ffH
	DB	' ', 0e4H, 0e0H, 0f2H, 0e0H, ' ', 0f0H, 0eeH, 0e6H, 0e4H, 0e5H
	DB	0edH, 0e8H, 0ffH, '!', 00H			; `string'
CONST	ENDS
;	COMDAT ??_C@_0BL@PBANEPHD@?B?b?e?d?h?r?e?5?o?e?p?e?m?e?q?e?m?m?s?$PO?5?d?$OA?r?s?5@
CONST	SEGMENT
??_C@_0BL@PBANEPHD@?B?b?e?d?h?r?e?5?o?e?p?e?m?e?q?e?m?m?s?$PO?5?d?$OA?r?s?5@ DB 0c2H
	DB	0e2H, 0e5H, 0e4H, 0e8H, 0f2H, 0e5H, ' ', 0efH, 0e5H, 0f0H, 0e5H
	DB	0edH, 0e5H, 0f1H, 0e5H, 0edH, 0edH, 0f3H, 0feH, ' ', 0e4H, 0e0H
	DB	0f2H, 0f3H, ' ', 00H				; `string'
CONST	ENDS
;	COMDAT ??_C@_0DC@FBLNNKIM@?B?b?e?d?h?r?e?5?d?$OA?r?s?5?b?$OA?x?e?c?n?5?p?n?f?d?e?m?h?$PP?5?b?5@
CONST	SEGMENT
??_C@_0DC@FBLNNKIM@?B?b?e?d?h?r?e?5?d?$OA?r?s?5?b?$OA?x?e?c?n?5?p?n?f?d?e?m?h?$PP?5?b?5@ DB 0c2H
	DB	0e2H, 0e5H, 0e4H, 0e8H, 0f2H, 0e5H, ' ', 0e4H, 0e0H, 0f2H, 0f3H
	DB	' ', 0e2H, 0e0H, 0f8H, 0e5H, 0e3H, 0eeH, ' ', 0f0H, 0eeH, 0e6H
	DB	0e4H, 0e5H, 0edH, 0e8H, 0ffH, ' ', 0e2H, ' ', 0f4H, 0eeH, 0f0H
	DB	0ecH, 0e0H, 0f2H, 0e5H, ' ', 0c4H, 0c4H, 0ccH, 0ccH, 0c3H, 0c3H
	DB	0c3H, 0c3H, ': ', 00H			; `string'
CONST	ENDS
;	COMDAT ??_C@_0BL@DBPAMPKJ@?M?e?j?n?p?p?e?j?r?m?$OA?$PP?5?r?e?j?s?y?$OA?$PP?5?d?$OA?r?$OA?$CB@
CONST	SEGMENT
??_C@_0BL@DBPAMPKJ@?M?e?j?n?p?p?e?j?r?m?$OA?$PP?5?r?e?j?s?y?$OA?$PP?5?d?$OA?r?$OA?$CB@ DB 0cdH
	DB	0e5H, 0eaH, 0eeH, 0f0H, 0f0H, 0e5H, 0eaH, 0f2H, 0edH, 0e0H, 0ffH
	DB	' ', 0f2H, 0e5H, 0eaH, 0f3H, 0f9H, 0e0H, 0ffH, ' ', 0e4H, 0e0H
	DB	0f2H, 0e0H, '!', 00H				; `string'
CONST	ENDS
;	COMDAT ??_C@_0CC@GJFPIFCJ@?B?b?e?d?h?r?e?5?d?$OA?r?s?5?b?5?t?n?p?l?$OA?r?e?5?D?D?L?L?C?C?C?C@
CONST	SEGMENT
??_C@_0CC@GJFPIFCJ@?B?b?e?d?h?r?e?5?d?$OA?r?s?5?b?5?t?n?p?l?$OA?r?e?5?D?D?L?L?C?C?C?C@ DB 0c2H
	DB	0e2H, 0e5H, 0e4H, 0e8H, 0f2H, 0e5H, ' ', 0e4H, 0e0H, 0f2H, 0f3H
	DB	' ', 0e2H, ' ', 0f4H, 0eeH, 0f0H, 0ecH, 0e0H, 0f2H, 0e5H, ' ', 0c4H
	DB	0c4H, 0ccH, 0ccH, 0c3H, 0c3H, 0c3H, 0c3H, ': ', 00H ; `string'
CONST	ENDS
;	COMDAT ??_C@_03EJKFMIHK@rus@
CONST	SEGMENT
??_C@_03EJKFMIHK@rus@ DB 'rus', 00H			; `string'
CONST	ENDS
;	COMDAT xdata
xdata	SEGMENT
$unwind$??$addressof@V?$basic_ostream@DU?$char_traits@D@std@@@std@@@std@@YAPEAV?$basic_ostream@DU?$char_traits@D@std@@@0@AEAV10@@Z DD 025051301H
	DD	010e2313H
	DD	07007001dH
	DD	05006H
xdata	ENDS
;	COMDAT xdata
xdata	SEGMENT
$unwind$??Bsentry@?$basic_ostream@DU?$char_traits@D@std@@@std@@QEBA_NXZ DD 025051301H
	DD	010e2313H
	DD	07007001dH
	DD	05006H
xdata	ENDS
;	COMDAT xdata
xdata	SEGMENT
$unwind$??1sentry@?$basic_ostream@DU?$char_traits@D@std@@@std@@QEAA@XZ DD 025051301H
	DD	010e2313H
	DD	070070021H
	DD	05006H
xdata	ENDS
;	COMDAT voltbl
voltbl	SEGMENT
_volmd	DB	00H
	DB	05H
voltbl	ENDS
;	COMDAT xdata
xdata	SEGMENT
$unwind$?dtor$0@?0???0sentry@?$basic_ostream@DU?$char_traits@D@std@@@std@@QEAA@AEAV12@@Z@4HA DD 031001H
	DD	0700c4210H
	DD	0500bH
xdata	ENDS
;	COMDAT xdata
xdata	SEGMENT
$ip2state$??0sentry@?$basic_ostream@DU?$char_traits@D@std@@@std@@QEAA@AEAV12@@Z DB 06H
	DB	00H
	DB	00H
	DB	'r'
	DB	02H
	DB	09H, 03H
	DB	00H
xdata	ENDS
;	COMDAT xdata
xdata	SEGMENT
$stateUnwindMap$??0sentry@?$basic_ostream@DU?$char_traits@D@std@@@std@@QEAA@AEAV12@@Z DB 02H
	DB	0eH
	DD	imagerel ?dtor$0@?0???0sentry@?$basic_ostream@DU?$char_traits@D@std@@@std@@QEAA@AEAV12@@Z@4HA
xdata	ENDS
;	COMDAT xdata
xdata	SEGMENT
$cppxdata$??0sentry@?$basic_ostream@DU?$char_traits@D@std@@@std@@QEAA@AEAV12@@Z DB 028H
	DD	imagerel $stateUnwindMap$??0sentry@?$basic_ostream@DU?$char_traits@D@std@@@std@@QEAA@AEAV12@@Z
	DD	imagerel $ip2state$??0sentry@?$basic_ostream@DU?$char_traits@D@std@@@std@@QEAA@AEAV12@@Z
xdata	ENDS
;	COMDAT xdata
xdata	SEGMENT
$unwind$??0sentry@?$basic_ostream@DU?$char_traits@D@std@@@std@@QEAA@AEAV12@@Z DD 025051811H
	DD	01132318H
	DD	0700c0021H
	DD	0500bH
	DD	imagerel __CxxFrameHandler4
	DD	imagerel $cppxdata$??0sentry@?$basic_ostream@DU?$char_traits@D@std@@@std@@QEAA@AEAV12@@Z
xdata	ENDS
;	COMDAT xdata
xdata	SEGMENT
$ip2state$??1_Sentry_base@?$basic_ostream@DU?$char_traits@D@std@@@std@@QEAA@XZ DB 02H
	DB	00H
	DB	00H
xdata	ENDS
;	COMDAT xdata
xdata	SEGMENT
$cppxdata$??1_Sentry_base@?$basic_ostream@DU?$char_traits@D@std@@@std@@QEAA@XZ DB 060H
	DD	imagerel $ip2state$??1_Sentry_base@?$basic_ostream@DU?$char_traits@D@std@@@std@@QEAA@XZ
xdata	ENDS
;	COMDAT xdata
xdata	SEGMENT
$unwind$??1_Sentry_base@?$basic_ostream@DU?$char_traits@D@std@@@std@@QEAA@XZ DD 025051319H
	DD	010e2313H
	DD	070070021H
	DD	05006H
	DD	imagerel __CxxFrameHandler4
	DD	imagerel $cppxdata$??1_Sentry_base@?$basic_ostream@DU?$char_traits@D@std@@@std@@QEAA@XZ
xdata	ENDS
;	COMDAT xdata
xdata	SEGMENT
$unwind$??0_Sentry_base@?$basic_ostream@DU?$char_traits@D@std@@@std@@QEAA@AEAV12@@Z DD 025051801H
	DD	01132318H
	DD	0700c0021H
	DD	0500bH
xdata	ENDS
;	COMDAT xdata
xdata	SEGMENT
$unwind$??$endl@DU?$char_traits@D@std@@@std@@YAAEAV?$basic_ostream@DU?$char_traits@D@std@@@0@AEAV10@@Z DD 025051301H
	DD	010e2313H
	DD	07007001dH
	DD	05006H
xdata	ENDS
;	COMDAT voltbl
voltbl	SEGMENT
_volmd	DB	00H
	DB	05H
voltbl	ENDS
;	COMDAT voltbl
voltbl	SEGMENT
_volmd	DB	00H
	DB	05H
voltbl	ENDS
;	COMDAT voltbl
voltbl	SEGMENT
_volmd	DW	03bH
	DW	0398H
voltbl	ENDS
;	COMDAT xdata
xdata	SEGMENT
$unwind$?catch$1@?0???$?6U?$char_traits@D@std@@@std@@YAAEAV?$basic_ostream@DU?$char_traits@D@std@@@0@AEAV10@PEBD@Z@4HA DD 031001H
	DD	0700c4210H
	DD	0500bH
xdata	ENDS
;	COMDAT xdata
xdata	SEGMENT
$unwind$?dtor$0@?0???$?6U?$char_traits@D@std@@@std@@YAAEAV?$basic_ostream@DU?$char_traits@D@std@@@0@AEAV10@PEBD@Z@4HA DD 031001H
	DD	0700c4210H
	DD	0500bH
xdata	ENDS
;	COMDAT xdata
xdata	SEGMENT
$ip2state$??$?6U?$char_traits@D@std@@@std@@YAAEAV?$basic_ostream@DU?$char_traits@D@std@@@0@AEAV10@PEBD@Z DB 0aH
	DB	00H
	DB	00H
	DB	'E', 04H
	DB	02H
	DB	'<'
	DB	04H
	DB	'!', 08H
	DB	02H
	DB	'v'
	DB	00H
xdata	ENDS
;	COMDAT xdata
xdata	SEGMENT
$handlerMap$??$?6U?$char_traits@D@std@@@std@@YAAEAV?$basic_ostream@DU?$char_traits@D@std@@@0@AEAV10@PEBD@Z DB 02H
	DB	01H
	DB	080H
	DD	imagerel ?catch$1@?0???$?6U?$char_traits@D@std@@@std@@YAAEAV?$basic_ostream@DU?$char_traits@D@std@@@0@AEAV10@PEBD@Z@4HA
xdata	ENDS
;	COMDAT xdata
xdata	SEGMENT
$tryMap$??$?6U?$char_traits@D@std@@@std@@YAAEAV?$basic_ostream@DU?$char_traits@D@std@@@0@AEAV10@PEBD@Z DB 02H
	DB	02H
	DB	02H
	DB	04H
	DD	imagerel $handlerMap$??$?6U?$char_traits@D@std@@@std@@YAAEAV?$basic_ostream@DU?$char_traits@D@std@@@0@AEAV10@PEBD@Z
xdata	ENDS
;	COMDAT xdata
xdata	SEGMENT
$stateUnwindMap$??$?6U?$char_traits@D@std@@@std@@YAAEAV?$basic_ostream@DU?$char_traits@D@std@@@0@AEAV10@PEBD@Z DB 06H
	DB	0eH
	DD	imagerel ?dtor$0@?0???$?6U?$char_traits@D@std@@@std@@YAAEAV?$basic_ostream@DU?$char_traits@D@std@@@0@AEAV10@PEBD@Z@4HA
	DB	028H
	DB	030H
xdata	ENDS
;	COMDAT xdata
xdata	SEGMENT
$cppxdata$??$?6U?$char_traits@D@std@@@std@@YAAEAV?$basic_ostream@DU?$char_traits@D@std@@@0@AEAV10@PEBD@Z DB 038H
	DD	imagerel $stateUnwindMap$??$?6U?$char_traits@D@std@@@std@@YAAEAV?$basic_ostream@DU?$char_traits@D@std@@@0@AEAV10@PEBD@Z
	DD	imagerel $tryMap$??$?6U?$char_traits@D@std@@@std@@YAAEAV?$basic_ostream@DU?$char_traits@D@std@@@0@AEAV10@PEBD@Z
	DD	imagerel $ip2state$??$?6U?$char_traits@D@std@@@std@@YAAEAV?$basic_ostream@DU?$char_traits@D@std@@@0@AEAV10@PEBD@Z
xdata	ENDS
;	COMDAT xdata
xdata	SEGMENT
$unwind$??$?6U?$char_traits@D@std@@@std@@YAAEAV?$basic_ostream@DU?$char_traits@D@std@@@0@AEAV10@PEBD@Z DD 025054219H
	DD	01132318H
	DD	0700c0035H
	DD	0500bH
	DD	imagerel __GSHandlerCheck_EH4
	DD	imagerel $cppxdata$??$?6U?$char_traits@D@std@@@std@@YAAEAV?$basic_ostream@DU?$char_traits@D@std@@@0@AEAV10@PEBD@Z
	DD	0193H
xdata	ENDS
;	COMDAT CONST
CONST	SEGMENT
??$?6U?$char_traits@D@std@@@std@@YAAEAV?$basic_ostream@DU?$char_traits@D@std@@@0@AEAV10@PEBD@Z$rtcName$0 DB 05fH ; std::operator<<<std::char_traits<char> >
	DB	04fH
	DB	06bH
	DB	00H
	ORG $+12
??$?6U?$char_traits@D@std@@@std@@YAAEAV?$basic_ostream@DU?$char_traits@D@std@@@0@AEAV10@PEBD@Z$rtcVarDesc DD 088H ; std::operator<<<std::char_traits<char> >
	DD	010H
	DQ	FLAT:??$?6U?$char_traits@D@std@@@std@@YAAEAV?$basic_ostream@DU?$char_traits@D@std@@@0@AEAV10@PEBD@Z$rtcName$0
	ORG $+48
??$?6U?$char_traits@D@std@@@std@@YAAEAV?$basic_ostream@DU?$char_traits@D@std@@@0@AEAV10@PEBD@Z$rtcFrameData DD 01H ; std::operator<<<std::char_traits<char> >
	DD	00H
	DQ	FLAT:??$?6U?$char_traits@D@std@@@std@@YAAEAV?$basic_ostream@DU?$char_traits@D@std@@@0@AEAV10@PEBD@Z$rtcVarDesc
CONST	ENDS
;	COMDAT voltbl
voltbl	SEGMENT
_volmd	DW	02aH
	DW	08a9H
voltbl	ENDS
;	COMDAT xdata
xdata	SEGMENT
$unwind$main DD	025053119H
	DD	010a230fH
	DD	07003009bH
	DD	05002H
	DD	imagerel __GSHandlerCheck
	DD	04c0H
xdata	ENDS
;	COMDAT CONST
CONST	SEGMENT
main$rtcName$0 DB 079H
	DB	065H
	DB	061H
	DB	072H
	DB	00H
	ORG $+3
main$rtcName$1 DB 076H
	DB	069H
	DB	073H
	DB	046H
	DB	06cH
	DB	061H
	DB	067H
	DB	00H
main$rtcName$2 DB 06dH
	DB	06fH
	DB	06eH
	DB	074H
	DB	068H
	DB	00H
	ORG $+2
main$rtcName$3 DB 064H
	DB	061H
	DB	079H
	DB	00H
	ORG $+4
main$rtcName$4 DB 068H
	DB	061H
	DB	070H
	DB	070H
	DB	079H
	DB	044H
	DB	061H
	DB	079H
	DB	00H
	ORG $+7
main$rtcName$5 DB 068H
	DB	061H
	DB	070H
	DB	070H
	DB	079H
	DB	04dH
	DB	06fH
	DB	06eH
	DB	074H
	DB	068H
	DB	00H
	ORG $+1
main$rtcName$6 DB 06dH
	DB	06fH
	DB	06eH
	DB	074H
	DB	068H
	DB	073H
	DB	00H
	ORG $+1
main$rtcName$7 DB 064H
	DB	061H
	DB	074H
	DB	061H
	DB	00H
	ORG $+7
main$rtcName$8 DB 068H
	DB	061H
	DB	070H
	DB	070H
	DB	079H
	DB	044H
	DB	061H
	DB	074H
	DB	061H
	DB	00H
	ORG $+6
main$rtcName$9 DB 062H
	DB	069H
	DB	072H
	DB	074H
	DB	068H
	DB	04dH
	DB	06fH
	DB	06eH
	DB	074H
	DB	068H
	DB	073H
	DB	00H
	ORG $+4
main$rtcVarDesc DD 0218H
	DD	030H
	DQ	FLAT:main$rtcName$9
	DD	094H
	DD	04H
	DQ	FLAT:main$rtcName$8
	DD	074H
	DD	04H
	DQ	FLAT:main$rtcName$7
	DD	028H
	DD	030H
	DQ	FLAT:main$rtcName$6
	ORG $+192
main$rtcFrameData DD 04H
	DD	00H
	DQ	FLAT:main$rtcVarDesc
CONST	ENDS
;	COMDAT xdata
xdata	SEGMENT
$unwind$?checkDate@@YA_NHHHPEAH@Z DD 025052001H
	DD	011b2320H
	DD	07014001dH
	DD	05013H
xdata	ENDS
;	COMDAT xdata
xdata	SEGMENT
$unwind$?isValid@@YA_NAEAH@Z DD 025051301H
	DD	010e2313H
	DD	07007001dH
	DD	05006H
xdata	ENDS
;	COMDAT xdata
xdata	SEGMENT
$unwind$?dayNum@@YAHHHPEAH@Z DD 025051b01H
	DD	0116231bH
	DD	0700f0025H
	DD	0500eH
xdata	ENDS
;	COMDAT xdata
xdata	SEGMENT
$unwind$?visokos@@YA_NH@Z DD 025051201H
	DD	010d2312H
	DD	07006001fH
	DD	05005H
xdata	ENDS
;	COMDAT xdata
xdata	SEGMENT
$unwind$?eof@?$_Narrow_char_traits@DH@std@@SAHXZ DD 025050f01H
	DD	010a230fH
	DD	07003001dH
	DD	05002H
xdata	ENDS
;	COMDAT xdata
xdata	SEGMENT
$unwind$?eq_int_type@?$_Narrow_char_traits@DH@std@@SA_NHH@Z DD 025051601H
	DD	01112316H
	DD	0700a001fH
	DD	05009H
xdata	ENDS
;	COMDAT xdata
xdata	SEGMENT
$unwind$?length@?$_Narrow_char_traits@DH@std@@SA_KQEBD@Z DD 025051301H
	DD	010e2313H
	DD	07007001dH
	DD	05006H
xdata	ENDS
;	COMDAT xdata
xdata	SEGMENT
$unwind$?__empty_global_delete@@YAXPEAX_K@Z DD 025051801H
	DD	01132318H
	DD	0700c001dH
	DD	0500bH
xdata	ENDS
;	COMDAT xdata
xdata	SEGMENT
$unwind$?__empty_global_delete@@YAXPEAX@Z DD 025051301H
	DD	010e2313H
	DD	07007001dH
	DD	05006H
xdata	ENDS
; Function compile flags: /Odt
;	COMDAT __JustMyCode_Default
_TEXT	SEGMENT
__JustMyCode_Default PROC				; COMDAT
  00000	c2 00 00	 ret	 0
__JustMyCode_Default ENDP
_TEXT	ENDS
; Function compile flags: /Odtp /RTCsu /ZI
; File C:\Program Files\Microsoft Visual Studio\2022\Community\VC\Tools\MSVC\14.44.35207\include\type_traits
;	COMDAT ??$addressof@V?$basic_ostream@DU?$char_traits@D@std@@@std@@@std@@YAPEAV?$basic_ostream@DU?$char_traits@D@std@@@0@AEAV10@@Z
_TEXT	SEGMENT
_Val$ = 224
??$addressof@V?$basic_ostream@DU?$char_traits@D@std@@@std@@@std@@YAPEAV?$basic_ostream@DU?$char_traits@D@std@@@0@AEAV10@@Z PROC ; std::addressof<std::basic_ostream<char,std::char_traits<char> > >, COMDAT

; 1524 : _NODISCARD constexpr _Ty* addressof(_Ty& _Val) noexcept {

$LN4:
  00000	48 89 4c 24 08	 mov	 QWORD PTR [rsp+8], rcx
  00005	55		 push	 rbp
  00006	57		 push	 rdi
  00007	48 81 ec e8 00
	00 00		 sub	 rsp, 232		; 000000e8H
  0000e	48 8d 6c 24 20	 lea	 rbp, QWORD PTR [rsp+32]
  00013	48 8d 0d 00 00
	00 00		 lea	 rcx, OFFSET FLAT:__B76FE24A_type_traits
  0001a	e8 00 00 00 00	 call	 __CheckForDebuggerJustMyCode
  0001f	90		 npad	 1

; 1525 :     return __builtin_addressof(_Val);

  00020	48 8b 85 e0 00
	00 00		 mov	 rax, QWORD PTR _Val$[rbp]

; 1526 : }

  00027	48 8d a5 c8 00
	00 00		 lea	 rsp, QWORD PTR [rbp+200]
  0002e	5f		 pop	 rdi
  0002f	5d		 pop	 rbp
  00030	c3		 ret	 0
??$addressof@V?$basic_ostream@DU?$char_traits@D@std@@@std@@@std@@YAPEAV?$basic_ostream@DU?$char_traits@D@std@@@0@AEAV10@@Z ENDP ; std::addressof<std::basic_ostream<char,std::char_traits<char> > >
_TEXT	ENDS
; Function compile flags: /Odtp /RTCsu /ZI
; File C:\Program Files\Microsoft Visual Studio\2022\Community\VC\Tools\MSVC\14.44.35207\include\__msvc_ostream.hpp
;	COMDAT ??Bsentry@?$basic_ostream@DU?$char_traits@D@std@@@std@@QEBA_NXZ
_TEXT	SEGMENT
this$ = 224
??Bsentry@?$basic_ostream@DU?$char_traits@D@std@@@std@@QEBA_NXZ PROC ; std::basic_ostream<char,std::char_traits<char> >::sentry::operator bool, COMDAT

; 122  :         explicit __CLR_OR_THIS_CALL operator bool() const {

$LN3:
  00000	48 89 4c 24 08	 mov	 QWORD PTR [rsp+8], rcx
  00005	55		 push	 rbp
  00006	57		 push	 rdi
  00007	48 81 ec e8 00
	00 00		 sub	 rsp, 232		; 000000e8H
  0000e	48 8d 6c 24 20	 lea	 rbp, QWORD PTR [rsp+32]
  00013	48 8d 0d 00 00
	00 00		 lea	 rcx, OFFSET FLAT:__00DCFE7C___msvc_ostream@hpp
  0001a	e8 00 00 00 00	 call	 __CheckForDebuggerJustMyCode
  0001f	90		 npad	 1

; 123  :             return _Ok;

  00020	48 8b 85 e0 00
	00 00		 mov	 rax, QWORD PTR this$[rbp]
  00027	0f b6 40 08	 movzx	 eax, BYTE PTR [rax+8]

; 124  :         }

  0002b	48 8d a5 c8 00
	00 00		 lea	 rsp, QWORD PTR [rbp+200]
  00032	5f		 pop	 rdi
  00033	5d		 pop	 rbp
  00034	c3		 ret	 0
??Bsentry@?$basic_ostream@DU?$char_traits@D@std@@@std@@QEBA_NXZ ENDP ; std::basic_ostream<char,std::char_traits<char> >::sentry::operator bool
_TEXT	ENDS
; Function compile flags: /Odtp /RTCsu /ZI
; File C:\Program Files\Microsoft Visual Studio\2022\Community\VC\Tools\MSVC\14.44.35207\include\__msvc_ostream.hpp
;	COMDAT ??1sentry@?$basic_ostream@DU?$char_traits@D@std@@@std@@QEAA@XZ
_TEXT	SEGMENT
_Zero_uncaught_exceptions$ = 4
tv72 = 212
this$ = 256
??1sentry@?$basic_ostream@DU?$char_traits@D@std@@@std@@QEAA@XZ PROC ; std::basic_ostream<char,std::char_traits<char> >::sentry::~sentry, COMDAT

; 107  :         __CLR_OR_THIS_CALL ~sentry() noexcept {

$LN7:
  00000	48 89 4c 24 08	 mov	 QWORD PTR [rsp+8], rcx
  00005	55		 push	 rbp
  00006	57		 push	 rdi
  00007	48 81 ec 08 01
	00 00		 sub	 rsp, 264		; 00000108H
  0000e	48 8d 6c 24 20	 lea	 rbp, QWORD PTR [rsp+32]
  00013	48 8d 0d 00 00
	00 00		 lea	 rcx, OFFSET FLAT:__00DCFE7C___msvc_ostream@hpp
  0001a	e8 00 00 00 00	 call	 __CheckForDebuggerJustMyCode
  0001f	90		 npad	 1

; 108  : #if !_HAS_EXCEPTIONS
; 109  :             const bool _Zero_uncaught_exceptions = true;
; 110  : #elif _HAS_DEPRECATED_UNCAUGHT_EXCEPTION
; 111  :             const bool _Zero_uncaught_exceptions = !_STD uncaught_exception(); // TRANSITION, ArchivedOS-12000909

  00020	e8 00 00 00 00	 call	 ?uncaught_exception@std@@YA_NXZ ; std::uncaught_exception
  00025	0f b6 c0	 movzx	 eax, al
  00028	85 c0		 test	 eax, eax
  0002a	75 09		 jne	 SHORT $LN4@sentry
  0002c	c6 85 d4 00 00
	00 01		 mov	 BYTE PTR tv72[rbp], 1
  00033	eb 07		 jmp	 SHORT $LN5@sentry
$LN4@sentry:
  00035	c6 85 d4 00 00
	00 00		 mov	 BYTE PTR tv72[rbp], 0
$LN5@sentry:
  0003c	0f b6 85 d4 00
	00 00		 movzx	 eax, BYTE PTR tv72[rbp]
  00043	88 45 04	 mov	 BYTE PTR _Zero_uncaught_exceptions$[rbp], al

; 112  : #else // ^^^ _HAS_DEPRECATED_UNCAUGHT_EXCEPTION / !_HAS_DEPRECATED_UNCAUGHT_EXCEPTION vvv
; 113  :             const bool _Zero_uncaught_exceptions = _STD uncaught_exceptions() == 0;
; 114  : #endif // ^^^ !_HAS_DEPRECATED_UNCAUGHT_EXCEPTION ^^^
; 115  : 
; 116  :             if (_Zero_uncaught_exceptions) {

  00046	0f b6 45 04	 movzx	 eax, BYTE PTR _Zero_uncaught_exceptions$[rbp]
  0004a	85 c0		 test	 eax, eax
  0004c	74 11		 je	 SHORT $LN2@sentry

; 117  :                 this->_Myostr._Osfx();

  0004e	48 8b 85 00 01
	00 00		 mov	 rax, QWORD PTR this$[rbp]
  00055	48 8b 08	 mov	 rcx, QWORD PTR [rax]
  00058	ff 15 00 00 00
	00		 call	 QWORD PTR __imp_?_Osfx@?$basic_ostream@DU?$char_traits@D@std@@@std@@QEAAXXZ
  0005e	90		 npad	 1
$LN2@sentry:

; 118  :             }
; 119  :         }

  0005f	48 8b 8d 00 01
	00 00		 mov	 rcx, QWORD PTR this$[rbp]
  00066	e8 00 00 00 00	 call	 ??1_Sentry_base@?$basic_ostream@DU?$char_traits@D@std@@@std@@QEAA@XZ ; std::basic_ostream<char,std::char_traits<char> >::_Sentry_base::~_Sentry_base
  0006b	90		 npad	 1
  0006c	48 8d a5 e8 00
	00 00		 lea	 rsp, QWORD PTR [rbp+232]
  00073	5f		 pop	 rdi
  00074	5d		 pop	 rbp
  00075	c3		 ret	 0
??1sentry@?$basic_ostream@DU?$char_traits@D@std@@@std@@QEAA@XZ ENDP ; std::basic_ostream<char,std::char_traits<char> >::sentry::~sentry
_TEXT	ENDS
; Function compile flags: /Odtp /RTCsu /ZI
; File C:\Program Files\Microsoft Visual Studio\2022\Community\VC\Tools\MSVC\14.44.35207\include\__msvc_ostream.hpp
;	COMDAT ??0sentry@?$basic_ostream@DU?$char_traits@D@std@@@std@@QEAA@AEAV12@@Z
_TEXT	SEGMENT
_Tied$ = 8
this$ = 256
_Ostr$ = 264
??0sentry@?$basic_ostream@DU?$char_traits@D@std@@@std@@QEAA@AEAV12@@Z PROC ; std::basic_ostream<char,std::char_traits<char> >::sentry::sentry, COMDAT

; 90   :         explicit __CLR_OR_THIS_CALL sentry(basic_ostream& _Ostr) : _Sentry_base(_Ostr) {

$LN7:
  00000	48 89 54 24 10	 mov	 QWORD PTR [rsp+16], rdx
  00005	48 89 4c 24 08	 mov	 QWORD PTR [rsp+8], rcx
  0000a	55		 push	 rbp
  0000b	57		 push	 rdi
  0000c	48 81 ec 08 01
	00 00		 sub	 rsp, 264		; 00000108H
  00013	48 8d 6c 24 20	 lea	 rbp, QWORD PTR [rsp+32]
  00018	48 8d 0d 00 00
	00 00		 lea	 rcx, OFFSET FLAT:__00DCFE7C___msvc_ostream@hpp
  0001f	e8 00 00 00 00	 call	 __CheckForDebuggerJustMyCode
  00024	90		 npad	 1
  00025	48 8b 95 08 01
	00 00		 mov	 rdx, QWORD PTR _Ostr$[rbp]
  0002c	48 8b 8d 00 01
	00 00		 mov	 rcx, QWORD PTR this$[rbp]
  00033	e8 00 00 00 00	 call	 ??0_Sentry_base@?$basic_ostream@DU?$char_traits@D@std@@@std@@QEAA@AEAV12@@Z ; std::basic_ostream<char,std::char_traits<char> >::_Sentry_base::_Sentry_base
  00038	90		 npad	 1

; 91   :             if (!_Ostr.good()) {

  00039	48 8b 85 08 01
	00 00		 mov	 rax, QWORD PTR _Ostr$[rbp]
  00040	48 8b 00	 mov	 rax, QWORD PTR [rax]
  00043	48 63 40 04	 movsxd	 rax, DWORD PTR [rax+4]
  00047	48 8b 8d 08 01
	00 00		 mov	 rcx, QWORD PTR _Ostr$[rbp]
  0004e	48 03 c8	 add	 rcx, rax
  00051	48 8b c1	 mov	 rax, rcx
  00054	48 8b c8	 mov	 rcx, rax
  00057	ff 15 00 00 00
	00		 call	 QWORD PTR __imp_?good@ios_base@std@@QEBA_NXZ
  0005d	0f b6 c0	 movzx	 eax, al
  00060	85 c0		 test	 eax, eax
  00062	75 10		 jne	 SHORT $LN2@sentry

; 92   :                 _Ok = false;

  00064	48 8b 85 00 01
	00 00		 mov	 rax, QWORD PTR this$[rbp]
  0006b	c6 40 08 00	 mov	 BYTE PTR [rax+8], 0

; 93   :                 return;

  0006f	e9 87 00 00 00	 jmp	 $LN1@sentry
$LN2@sentry:

; 94   :             }
; 95   : 
; 96   :             const auto _Tied = _Ostr.tie();

  00074	48 8b 85 08 01
	00 00		 mov	 rax, QWORD PTR _Ostr$[rbp]
  0007b	48 8b 00	 mov	 rax, QWORD PTR [rax]
  0007e	48 63 40 04	 movsxd	 rax, DWORD PTR [rax+4]
  00082	48 8b 8d 08 01
	00 00		 mov	 rcx, QWORD PTR _Ostr$[rbp]
  00089	48 03 c8	 add	 rcx, rax
  0008c	48 8b c1	 mov	 rax, rcx
  0008f	48 8b c8	 mov	 rcx, rax
  00092	ff 15 00 00 00
	00		 call	 QWORD PTR __imp_?tie@?$basic_ios@DU?$char_traits@D@std@@@std@@QEBAPEAV?$basic_ostream@DU?$char_traits@D@std@@@2@XZ
  00098	48 89 45 08	 mov	 QWORD PTR _Tied$[rbp], rax

; 97   :             if (!_Tied || _Tied == _STD addressof(_Ostr)) {

  0009c	48 83 7d 08 00	 cmp	 QWORD PTR _Tied$[rbp], 0
  000a1	74 12		 je	 SHORT $LN4@sentry
  000a3	48 8b 8d 08 01
	00 00		 mov	 rcx, QWORD PTR _Ostr$[rbp]
  000aa	e8 00 00 00 00	 call	 ??$addressof@V?$basic_ostream@DU?$char_traits@D@std@@@std@@@std@@YAPEAV?$basic_ostream@DU?$char_traits@D@std@@@0@AEAV10@@Z ; std::addressof<std::basic_ostream<char,std::char_traits<char> > >
  000af	48 39 45 08	 cmp	 QWORD PTR _Tied$[rbp], rax
  000b3	75 0d		 jne	 SHORT $LN3@sentry
$LN4@sentry:

; 98   :                 _Ok = true;

  000b5	48 8b 85 00 01
	00 00		 mov	 rax, QWORD PTR this$[rbp]
  000bc	c6 40 08 01	 mov	 BYTE PTR [rax+8], 1

; 99   :                 return;

  000c0	eb 39		 jmp	 SHORT $LN1@sentry
$LN3@sentry:

; 100  :             }
; 101  : 
; 102  :             _Tied->flush();

  000c2	48 8b 4d 08	 mov	 rcx, QWORD PTR _Tied$[rbp]
  000c6	ff 15 00 00 00
	00		 call	 QWORD PTR __imp_?flush@?$basic_ostream@DU?$char_traits@D@std@@@std@@QEAAAEAV12@XZ
  000cc	90		 npad	 1

; 103  :             _Ok = _Ostr.good(); // store test only after flushing tie

  000cd	48 8b 85 08 01
	00 00		 mov	 rax, QWORD PTR _Ostr$[rbp]
  000d4	48 8b 00	 mov	 rax, QWORD PTR [rax]
  000d7	48 63 40 04	 movsxd	 rax, DWORD PTR [rax+4]
  000db	48 8b 8d 08 01
	00 00		 mov	 rcx, QWORD PTR _Ostr$[rbp]
  000e2	48 03 c8	 add	 rcx, rax
  000e5	48 8b c1	 mov	 rax, rcx
  000e8	48 8b c8	 mov	 rcx, rax
  000eb	ff 15 00 00 00
	00		 call	 QWORD PTR __imp_?good@ios_base@std@@QEBA_NXZ
  000f1	48 8b 8d 00 01
	00 00		 mov	 rcx, QWORD PTR this$[rbp]
  000f8	88 41 08	 mov	 BYTE PTR [rcx+8], al
$LN1@sentry:

; 104  :         }

  000fb	48 8b 85 00 01
	00 00		 mov	 rax, QWORD PTR this$[rbp]
  00102	48 8d a5 e8 00
	00 00		 lea	 rsp, QWORD PTR [rbp+232]
  00109	5f		 pop	 rdi
  0010a	5d		 pop	 rbp
  0010b	c3		 ret	 0
??0sentry@?$basic_ostream@DU?$char_traits@D@std@@@std@@QEAA@AEAV12@@Z ENDP ; std::basic_ostream<char,std::char_traits<char> >::sentry::sentry
_TEXT	ENDS
; Function compile flags: /Odtp /RTCsu /ZI
;	COMDAT text$x
text$x	SEGMENT
_Tied$ = 8
this$ = 256
_Ostr$ = 264
?dtor$0@?0???0sentry@?$basic_ostream@DU?$char_traits@D@std@@@std@@QEAA@AEAV12@@Z@4HA PROC ; `std::basic_ostream<char,std::char_traits<char> >::sentry::sentry'::`1'::dtor$0
  00000	48 89 4c 24 08	 mov	 QWORD PTR [rsp+8], rcx
  00005	48 89 54 24 10	 mov	 QWORD PTR [rsp+16], rdx
  0000a	55		 push	 rbp
  0000b	57		 push	 rdi
  0000c	48 83 ec 28	 sub	 rsp, 40			; 00000028H
  00010	48 8d 6a 20	 lea	 rbp, QWORD PTR [rdx+32]
  00014	48 8b 8d 00 01
	00 00		 mov	 rcx, QWORD PTR this$[rbp]
  0001b	e8 00 00 00 00	 call	 ??1_Sentry_base@?$basic_ostream@DU?$char_traits@D@std@@@std@@QEAA@XZ ; std::basic_ostream<char,std::char_traits<char> >::_Sentry_base::~_Sentry_base
  00020	48 83 c4 28	 add	 rsp, 40			; 00000028H
  00024	5f		 pop	 rdi
  00025	5d		 pop	 rbp
  00026	c3		 ret	 0
?dtor$0@?0???0sentry@?$basic_ostream@DU?$char_traits@D@std@@@std@@QEAA@AEAV12@@Z@4HA ENDP ; `std::basic_ostream<char,std::char_traits<char> >::sentry::sentry'::`1'::dtor$0
text$x	ENDS
; Function compile flags: /Odtp /RTCsu /ZI
; File C:\Program Files\Microsoft Visual Studio\2022\Community\VC\Tools\MSVC\14.44.35207\include\__msvc_ostream.hpp
;	COMDAT ??1_Sentry_base@?$basic_ostream@DU?$char_traits@D@std@@@std@@QEAA@XZ
_TEXT	SEGMENT
_Rdbuf$ = 8
tv72 = 216
this$ = 256
??1_Sentry_base@?$basic_ostream@DU?$char_traits@D@std@@@std@@QEAA@XZ PROC ; std::basic_ostream<char,std::char_traits<char> >::_Sentry_base::~_Sentry_base, COMDAT

; 76   :         __CLR_OR_THIS_CALL ~_Sentry_base() noexcept { // destroy after unlocking

$LN5:
  00000	48 89 4c 24 08	 mov	 QWORD PTR [rsp+8], rcx
  00005	55		 push	 rbp
  00006	57		 push	 rdi
  00007	48 81 ec 08 01
	00 00		 sub	 rsp, 264		; 00000108H
  0000e	48 8d 6c 24 20	 lea	 rbp, QWORD PTR [rsp+32]
  00013	48 8d 0d 00 00
	00 00		 lea	 rcx, OFFSET FLAT:__00DCFE7C___msvc_ostream@hpp
  0001a	e8 00 00 00 00	 call	 __CheckForDebuggerJustMyCode
  0001f	90		 npad	 1

; 77   :             const auto _Rdbuf = _Myostr.rdbuf();

  00020	48 8b 85 00 01
	00 00		 mov	 rax, QWORD PTR this$[rbp]
  00027	48 8b 00	 mov	 rax, QWORD PTR [rax]
  0002a	48 89 85 d8 00
	00 00		 mov	 QWORD PTR tv72[rbp], rax
  00031	48 8b 85 d8 00
	00 00		 mov	 rax, QWORD PTR tv72[rbp]
  00038	48 8b 00	 mov	 rax, QWORD PTR [rax]
  0003b	48 63 40 04	 movsxd	 rax, DWORD PTR [rax+4]
  0003f	48 8b 8d d8 00
	00 00		 mov	 rcx, QWORD PTR tv72[rbp]
  00046	48 03 c8	 add	 rcx, rax
  00049	48 8b c1	 mov	 rax, rcx
  0004c	48 8b c8	 mov	 rcx, rax
  0004f	ff 15 00 00 00
	00		 call	 QWORD PTR __imp_?rdbuf@?$basic_ios@DU?$char_traits@D@std@@@std@@QEBAPEAV?$basic_streambuf@DU?$char_traits@D@std@@@2@XZ
  00055	48 89 45 08	 mov	 QWORD PTR _Rdbuf$[rbp], rax

; 78   :             if (_Rdbuf) {

  00059	48 83 7d 08 00	 cmp	 QWORD PTR _Rdbuf$[rbp], 0
  0005e	74 0f		 je	 SHORT $LN2@Sentry_bas

; 79   :                 _Rdbuf->_Unlock();

  00060	48 8b 45 08	 mov	 rax, QWORD PTR _Rdbuf$[rbp]
  00064	48 8b 00	 mov	 rax, QWORD PTR [rax]
  00067	48 8b 4d 08	 mov	 rcx, QWORD PTR _Rdbuf$[rbp]
  0006b	ff 50 10	 call	 QWORD PTR [rax+16]
  0006e	90		 npad	 1
$LN2@Sentry_bas:

; 80   :             }
; 81   :         }

  0006f	48 8d a5 e8 00
	00 00		 lea	 rsp, QWORD PTR [rbp+232]
  00076	5f		 pop	 rdi
  00077	5d		 pop	 rbp
  00078	c3		 ret	 0
??1_Sentry_base@?$basic_ostream@DU?$char_traits@D@std@@@std@@QEAA@XZ ENDP ; std::basic_ostream<char,std::char_traits<char> >::_Sentry_base::~_Sentry_base
_TEXT	ENDS
; Function compile flags: /Odtp /RTCsu /ZI
; File C:\Program Files\Microsoft Visual Studio\2022\Community\VC\Tools\MSVC\14.44.35207\include\__msvc_ostream.hpp
;	COMDAT ??0_Sentry_base@?$basic_ostream@DU?$char_traits@D@std@@@std@@QEAA@AEAV12@@Z
_TEXT	SEGMENT
_Rdbuf$ = 8
tv73 = 216
this$ = 256
_Ostr$ = 264
??0_Sentry_base@?$basic_ostream@DU?$char_traits@D@std@@@std@@QEAA@AEAV12@@Z PROC ; std::basic_ostream<char,std::char_traits<char> >::_Sentry_base::_Sentry_base, COMDAT

; 69   :         __CLR_OR_THIS_CALL _Sentry_base(basic_ostream& _Ostr) : _Myostr(_Ostr) { // lock the stream buffer, if there

$LN4:
  00000	48 89 54 24 10	 mov	 QWORD PTR [rsp+16], rdx
  00005	48 89 4c 24 08	 mov	 QWORD PTR [rsp+8], rcx
  0000a	55		 push	 rbp
  0000b	57		 push	 rdi
  0000c	48 81 ec 08 01
	00 00		 sub	 rsp, 264		; 00000108H
  00013	48 8d 6c 24 20	 lea	 rbp, QWORD PTR [rsp+32]
  00018	48 8d 0d 00 00
	00 00		 lea	 rcx, OFFSET FLAT:__00DCFE7C___msvc_ostream@hpp
  0001f	e8 00 00 00 00	 call	 __CheckForDebuggerJustMyCode
  00024	90		 npad	 1
  00025	48 8b 85 00 01
	00 00		 mov	 rax, QWORD PTR this$[rbp]
  0002c	48 8b 8d 08 01
	00 00		 mov	 rcx, QWORD PTR _Ostr$[rbp]
  00033	48 89 08	 mov	 QWORD PTR [rax], rcx

; 70   :             const auto _Rdbuf = _Myostr.rdbuf();

  00036	48 8b 85 00 01
	00 00		 mov	 rax, QWORD PTR this$[rbp]
  0003d	48 8b 00	 mov	 rax, QWORD PTR [rax]
  00040	48 89 85 d8 00
	00 00		 mov	 QWORD PTR tv73[rbp], rax
  00047	48 8b 85 d8 00
	00 00		 mov	 rax, QWORD PTR tv73[rbp]
  0004e	48 8b 00	 mov	 rax, QWORD PTR [rax]
  00051	48 63 40 04	 movsxd	 rax, DWORD PTR [rax+4]
  00055	48 8b 8d d8 00
	00 00		 mov	 rcx, QWORD PTR tv73[rbp]
  0005c	48 03 c8	 add	 rcx, rax
  0005f	48 8b c1	 mov	 rax, rcx
  00062	48 8b c8	 mov	 rcx, rax
  00065	ff 15 00 00 00
	00		 call	 QWORD PTR __imp_?rdbuf@?$basic_ios@DU?$char_traits@D@std@@@std@@QEBAPEAV?$basic_streambuf@DU?$char_traits@D@std@@@2@XZ
  0006b	48 89 45 08	 mov	 QWORD PTR _Rdbuf$[rbp], rax

; 71   :             if (_Rdbuf) {

  0006f	48 83 7d 08 00	 cmp	 QWORD PTR _Rdbuf$[rbp], 0
  00074	74 0f		 je	 SHORT $LN2@Sentry_bas

; 72   :                 _Rdbuf->_Lock();

  00076	48 8b 45 08	 mov	 rax, QWORD PTR _Rdbuf$[rbp]
  0007a	48 8b 00	 mov	 rax, QWORD PTR [rax]
  0007d	48 8b 4d 08	 mov	 rcx, QWORD PTR _Rdbuf$[rbp]
  00081	ff 50 08	 call	 QWORD PTR [rax+8]
  00084	90		 npad	 1
$LN2@Sentry_bas:

; 73   :             }
; 74   :         }

  00085	48 8b 85 00 01
	00 00		 mov	 rax, QWORD PTR this$[rbp]
  0008c	48 8d a5 e8 00
	00 00		 lea	 rsp, QWORD PTR [rbp+232]
  00093	5f		 pop	 rdi
  00094	5d		 pop	 rbp
  00095	c3		 ret	 0
??0_Sentry_base@?$basic_ostream@DU?$char_traits@D@std@@@std@@QEAA@AEAV12@@Z ENDP ; std::basic_ostream<char,std::char_traits<char> >::_Sentry_base::_Sentry_base
_TEXT	ENDS
; Function compile flags: /Odtp /RTCsu /ZI
; File C:\Program Files\Microsoft Visual Studio\2022\Community\VC\Tools\MSVC\14.44.35207\include\__msvc_ostream.hpp
;	COMDAT ??$endl@DU?$char_traits@D@std@@@std@@YAAEAV?$basic_ostream@DU?$char_traits@D@std@@@0@AEAV10@@Z
_TEXT	SEGMENT
_Ostr$ = 224
??$endl@DU?$char_traits@D@std@@@std@@YAAEAV?$basic_ostream@DU?$char_traits@D@std@@@0@AEAV10@@Z PROC ; std::endl<char,std::char_traits<char> >, COMDAT

; 1012 :     basic_ostream<_Elem, _Traits>& _Ostr) { // insert newline and flush stream

$LN3:
  00000	48 89 4c 24 08	 mov	 QWORD PTR [rsp+8], rcx
  00005	55		 push	 rbp
  00006	57		 push	 rdi
  00007	48 81 ec e8 00
	00 00		 sub	 rsp, 232		; 000000e8H
  0000e	48 8d 6c 24 20	 lea	 rbp, QWORD PTR [rsp+32]
  00013	48 8d 0d 00 00
	00 00		 lea	 rcx, OFFSET FLAT:__00DCFE7C___msvc_ostream@hpp
  0001a	e8 00 00 00 00	 call	 __CheckForDebuggerJustMyCode
  0001f	90		 npad	 1

; 1013 :     _Ostr.put(_Ostr.widen('\n'));

  00020	48 8b 85 e0 00
	00 00		 mov	 rax, QWORD PTR _Ostr$[rbp]
  00027	48 8b 00	 mov	 rax, QWORD PTR [rax]
  0002a	48 63 40 04	 movsxd	 rax, DWORD PTR [rax+4]
  0002e	48 8b 8d e0 00
	00 00		 mov	 rcx, QWORD PTR _Ostr$[rbp]
  00035	48 03 c8	 add	 rcx, rax
  00038	48 8b c1	 mov	 rax, rcx
  0003b	b2 0a		 mov	 dl, 10
  0003d	48 8b c8	 mov	 rcx, rax
  00040	ff 15 00 00 00
	00		 call	 QWORD PTR __imp_?widen@?$basic_ios@DU?$char_traits@D@std@@@std@@QEBADD@Z
  00046	0f b6 d0	 movzx	 edx, al
  00049	48 8b 8d e0 00
	00 00		 mov	 rcx, QWORD PTR _Ostr$[rbp]
  00050	ff 15 00 00 00
	00		 call	 QWORD PTR __imp_?put@?$basic_ostream@DU?$char_traits@D@std@@@std@@QEAAAEAV12@D@Z
  00056	90		 npad	 1

; 1014 :     _Ostr.flush();

  00057	48 8b 8d e0 00
	00 00		 mov	 rcx, QWORD PTR _Ostr$[rbp]
  0005e	ff 15 00 00 00
	00		 call	 QWORD PTR __imp_?flush@?$basic_ostream@DU?$char_traits@D@std@@@std@@QEAAAEAV12@XZ
  00064	90		 npad	 1

; 1015 :     return _Ostr;

  00065	48 8b 85 e0 00
	00 00		 mov	 rax, QWORD PTR _Ostr$[rbp]

; 1016 : }

  0006c	48 8d a5 c8 00
	00 00		 lea	 rsp, QWORD PTR [rbp+200]
  00073	5f		 pop	 rdi
  00074	5d		 pop	 rbp
  00075	c3		 ret	 0
??$endl@DU?$char_traits@D@std@@@std@@YAAEAV?$basic_ostream@DU?$char_traits@D@std@@@0@AEAV10@@Z ENDP ; std::endl<char,std::char_traits<char> >
_TEXT	ENDS
; Function compile flags: /Odtp /RTCsu /ZI
; File C:\Program Files\Microsoft Visual Studio\2022\Community\VC\Tools\MSVC\14.44.35207\include\__msvc_ostream.hpp
;	COMDAT ??$?6U?$char_traits@D@std@@@std@@YAAEAV?$basic_ostream@DU?$char_traits@D@std@@@0@AEAV10@PEBD@Z
_TEXT	SEGMENT
_State$ = 4
_Count$ = 40
_Pad$ = 72
_Ok$ = 104
$T4 = 344
tv283 = 356
tv285 = 356
tv137 = 360
tv139 = 360
tv295 = 360
tv296 = 360
__$ArrayPad$ = 368
_Ostr$ = 416
_Val$ = 424
??$?6U?$char_traits@D@std@@@std@@YAAEAV?$basic_ostream@DU?$char_traits@D@std@@@0@AEAV10@PEBD@Z PROC ; std::operator<<<std::char_traits<char> >, COMDAT

; 768  : basic_ostream<char, _Traits>& operator<<(basic_ostream<char, _Traits>& _Ostr, const char* _Val) {

$LN25:
  00000	48 89 54 24 10	 mov	 QWORD PTR [rsp+16], rdx
  00005	48 89 4c 24 08	 mov	 QWORD PTR [rsp+8], rcx
  0000a	55		 push	 rbp
  0000b	57		 push	 rdi
  0000c	48 81 ec a8 01
	00 00		 sub	 rsp, 424		; 000001a8H
  00013	48 8d 6c 24 20	 lea	 rbp, QWORD PTR [rsp+32]
  00018	48 8d 7c 24 20	 lea	 rdi, QWORD PTR [rsp+32]
  0001d	b9 32 00 00 00	 mov	 ecx, 50			; 00000032H
  00022	b8 cc cc cc cc	 mov	 eax, -858993460		; ccccccccH
  00027	f3 ab		 rep stosd
  00029	48 8b 8c 24 c8
	01 00 00	 mov	 rcx, QWORD PTR [rsp+456]
  00031	48 8b 05 00 00
	00 00		 mov	 rax, QWORD PTR __security_cookie
  00038	48 33 c5	 xor	 rax, rbp
  0003b	48 89 85 70 01
	00 00		 mov	 QWORD PTR __$ArrayPad$[rbp], rax
  00042	48 8d 0d 00 00
	00 00		 lea	 rcx, OFFSET FLAT:__00DCFE7C___msvc_ostream@hpp
  00049	e8 00 00 00 00	 call	 __CheckForDebuggerJustMyCode
  0004e	90		 npad	 1

; 769  :     // insert NTBS into char stream
; 770  :     using _Elem = char;
; 771  :     using _Myos = basic_ostream<_Elem, _Traits>;
; 772  : 
; 773  :     ios_base::iostate _State = ios_base::goodbit;

  0004f	c7 45 04 00 00
	00 00		 mov	 DWORD PTR _State$[rbp], 0

; 774  :     streamsize _Count        = static_cast<streamsize>(_Traits::length(_Val));

  00056	48 8b 8d a8 01
	00 00		 mov	 rcx, QWORD PTR _Val$[rbp]
  0005d	e8 00 00 00 00	 call	 ?length@?$_Narrow_char_traits@DH@std@@SA_KQEBD@Z ; std::_Narrow_char_traits<char,int>::length
  00062	48 89 45 28	 mov	 QWORD PTR _Count$[rbp], rax

; 775  :     streamsize _Pad          = _Ostr.width() <= 0 || _Ostr.width() <= _Count ? 0 : _Ostr.width() - _Count;

  00066	48 8b 85 a0 01
	00 00		 mov	 rax, QWORD PTR _Ostr$[rbp]
  0006d	48 8b 00	 mov	 rax, QWORD PTR [rax]
  00070	48 63 40 04	 movsxd	 rax, DWORD PTR [rax+4]
  00074	48 8b 8d a0 01
	00 00		 mov	 rcx, QWORD PTR _Ostr$[rbp]
  0007b	48 03 c8	 add	 rcx, rax
  0007e	48 8b c1	 mov	 rax, rcx
  00081	48 8b c8	 mov	 rcx, rax
  00084	ff 15 00 00 00
	00		 call	 QWORD PTR __imp_?width@ios_base@std@@QEBA_JXZ
  0008a	48 85 c0	 test	 rax, rax
  0008d	7e 5b		 jle	 SHORT $LN17@operator
  0008f	48 8b 85 a0 01
	00 00		 mov	 rax, QWORD PTR _Ostr$[rbp]
  00096	48 8b 00	 mov	 rax, QWORD PTR [rax]
  00099	48 63 40 04	 movsxd	 rax, DWORD PTR [rax+4]
  0009d	48 8b 8d a0 01
	00 00		 mov	 rcx, QWORD PTR _Ostr$[rbp]
  000a4	48 03 c8	 add	 rcx, rax
  000a7	48 8b c1	 mov	 rax, rcx
  000aa	48 8b c8	 mov	 rcx, rax
  000ad	ff 15 00 00 00
	00		 call	 QWORD PTR __imp_?width@ios_base@std@@QEBA_JXZ
  000b3	48 3b 45 28	 cmp	 rax, QWORD PTR _Count$[rbp]
  000b7	7e 31		 jle	 SHORT $LN17@operator
  000b9	48 8b 85 a0 01
	00 00		 mov	 rax, QWORD PTR _Ostr$[rbp]
  000c0	48 8b 00	 mov	 rax, QWORD PTR [rax]
  000c3	48 63 40 04	 movsxd	 rax, DWORD PTR [rax+4]
  000c7	48 8b 8d a0 01
	00 00		 mov	 rcx, QWORD PTR _Ostr$[rbp]
  000ce	48 03 c8	 add	 rcx, rax
  000d1	48 8b c1	 mov	 rax, rcx
  000d4	48 8b c8	 mov	 rcx, rax
  000d7	ff 15 00 00 00
	00		 call	 QWORD PTR __imp_?width@ios_base@std@@QEBA_JXZ
  000dd	48 2b 45 28	 sub	 rax, QWORD PTR _Count$[rbp]
  000e1	48 89 85 68 01
	00 00		 mov	 QWORD PTR tv137[rbp], rax
  000e8	eb 0b		 jmp	 SHORT $LN18@operator
$LN17@operator:
  000ea	48 c7 85 68 01
	00 00 00 00 00
	00		 mov	 QWORD PTR tv137[rbp], 0
$LN18@operator:
  000f5	48 8b 85 68 01
	00 00		 mov	 rax, QWORD PTR tv137[rbp]
  000fc	48 89 45 48	 mov	 QWORD PTR _Pad$[rbp], rax

; 776  :     const typename _Myos::sentry _Ok(_Ostr);

  00100	48 8b 95 a0 01
	00 00		 mov	 rdx, QWORD PTR _Ostr$[rbp]
  00107	48 8d 4d 68	 lea	 rcx, QWORD PTR _Ok$[rbp]
  0010b	e8 00 00 00 00	 call	 ??0sentry@?$basic_ostream@DU?$char_traits@D@std@@@std@@QEAA@AEAV12@@Z ; std::basic_ostream<char,std::char_traits<char> >::sentry::sentry
  00110	90		 npad	 1

; 777  : 
; 778  :     if (!_Ok) {

  00111	48 8d 4d 68	 lea	 rcx, QWORD PTR _Ok$[rbp]
  00115	e8 00 00 00 00	 call	 ??Bsentry@?$basic_ostream@DU?$char_traits@D@std@@@std@@QEBA_NXZ ; std::basic_ostream<char,std::char_traits<char> >::sentry::operator bool
  0011a	0f b6 c0	 movzx	 eax, al
  0011d	85 c0		 test	 eax, eax
  0011f	75 0e		 jne	 SHORT $LN8@operator

; 779  :         _State |= ios_base::badbit;

  00121	8b 45 04	 mov	 eax, DWORD PTR _State$[rbp]
  00124	83 c8 04	 or	 eax, 4
  00127	89 45 04	 mov	 DWORD PTR _State$[rbp], eax

; 780  :     } else { // state okay, insert

  0012a	e9 0a 02 00 00	 jmp	 $LN9@operator
$LN8@operator:

; 781  :         _TRY_IO_BEGIN
; 782  :         if ((_Ostr.flags() & ios_base::adjustfield) != ios_base::left) {

  0012f	48 8b 85 a0 01
	00 00		 mov	 rax, QWORD PTR _Ostr$[rbp]
  00136	48 8b 00	 mov	 rax, QWORD PTR [rax]
  00139	48 63 40 04	 movsxd	 rax, DWORD PTR [rax+4]
  0013d	48 8b 8d a0 01
	00 00		 mov	 rcx, QWORD PTR _Ostr$[rbp]
  00144	48 03 c8	 add	 rcx, rax
  00147	48 8b c1	 mov	 rax, rcx
  0014a	48 8b c8	 mov	 rcx, rax
  0014d	ff 15 00 00 00
	00		 call	 QWORD PTR __imp_?flags@ios_base@std@@QEBAHXZ
  00153	25 c0 01 00 00	 and	 eax, 448		; 000001c0H
  00158	83 f8 40	 cmp	 eax, 64			; 00000040H
  0015b	0f 84 a5 00 00
	00		 je	 $LN11@operator

; 783  :             for (; 0 < _Pad; --_Pad) { // pad on left

  00161	eb 0b		 jmp	 SHORT $LN4@operator
$LN2@operator:
  00163	48 8b 45 48	 mov	 rax, QWORD PTR _Pad$[rbp]
  00167	48 ff c8	 dec	 rax
  0016a	48 89 45 48	 mov	 QWORD PTR _Pad$[rbp], rax
$LN4@operator:
  0016e	48 83 7d 48 00	 cmp	 QWORD PTR _Pad$[rbp], 0
  00173	0f 8e 8d 00 00
	00		 jle	 $LN11@operator

; 784  :                 if (_Traits::eq_int_type(_Traits::eof(), _Ostr.rdbuf()->sputc(_Ostr.fill()))) {

  00179	48 8b 85 a0 01
	00 00		 mov	 rax, QWORD PTR _Ostr$[rbp]
  00180	48 8b 00	 mov	 rax, QWORD PTR [rax]
  00183	48 63 40 04	 movsxd	 rax, DWORD PTR [rax+4]
  00187	48 8b 8d a0 01
	00 00		 mov	 rcx, QWORD PTR _Ostr$[rbp]
  0018e	48 03 c8	 add	 rcx, rax
  00191	48 8b c1	 mov	 rax, rcx
  00194	48 8b c8	 mov	 rcx, rax
  00197	ff 15 00 00 00
	00		 call	 QWORD PTR __imp_?fill@?$basic_ios@DU?$char_traits@D@std@@@std@@QEBADXZ
  0019d	88 85 64 01 00
	00		 mov	 BYTE PTR tv285[rbp], al
  001a3	48 8b 8d a0 01
	00 00		 mov	 rcx, QWORD PTR _Ostr$[rbp]
  001aa	48 8b 09	 mov	 rcx, QWORD PTR [rcx]
  001ad	48 63 49 04	 movsxd	 rcx, DWORD PTR [rcx+4]
  001b1	48 8b 95 a0 01
	00 00		 mov	 rdx, QWORD PTR _Ostr$[rbp]
  001b8	48 03 d1	 add	 rdx, rcx
  001bb	48 8b ca	 mov	 rcx, rdx
  001be	ff 15 00 00 00
	00		 call	 QWORD PTR __imp_?rdbuf@?$basic_ios@DU?$char_traits@D@std@@@std@@QEBAPEAV?$basic_streambuf@DU?$char_traits@D@std@@@2@XZ
  001c4	0f b6 8d 64 01
	00 00		 movzx	 ecx, BYTE PTR tv285[rbp]
  001cb	0f b6 d1	 movzx	 edx, cl
  001ce	48 8b c8	 mov	 rcx, rax
  001d1	ff 15 00 00 00
	00		 call	 QWORD PTR __imp_?sputc@?$basic_streambuf@DU?$char_traits@D@std@@@std@@QEAAHD@Z
  001d7	89 85 68 01 00
	00		 mov	 DWORD PTR tv139[rbp], eax
  001dd	e8 00 00 00 00	 call	 ?eof@?$_Narrow_char_traits@DH@std@@SAHXZ ; std::_Narrow_char_traits<char,int>::eof
  001e2	8b 95 68 01 00
	00		 mov	 edx, DWORD PTR tv139[rbp]
  001e8	8b c8		 mov	 ecx, eax
  001ea	e8 00 00 00 00	 call	 ?eq_int_type@?$_Narrow_char_traits@DH@std@@SA_NHH@Z ; std::_Narrow_char_traits<char,int>::eq_int_type
  001ef	0f b6 c0	 movzx	 eax, al
  001f2	85 c0		 test	 eax, eax
  001f4	74 0b		 je	 SHORT $LN12@operator

; 785  :                     _State |= ios_base::badbit; // insertion failed, quit

  001f6	8b 45 04	 mov	 eax, DWORD PTR _State$[rbp]
  001f9	83 c8 04	 or	 eax, 4
  001fc	89 45 04	 mov	 DWORD PTR _State$[rbp], eax

; 786  :                     break;

  001ff	eb 05		 jmp	 SHORT $LN11@operator
$LN12@operator:

; 787  :                 }
; 788  :             }

  00201	e9 5d ff ff ff	 jmp	 $LN2@operator
$LN11@operator:

; 789  :         }
; 790  : 
; 791  :         if (_State == ios_base::goodbit && _Ostr.rdbuf()->sputn(_Val, _Count) != _Count) {

  00206	83 7d 04 00	 cmp	 DWORD PTR _State$[rbp], 0
  0020a	75 55		 jne	 SHORT $LN13@operator
  0020c	48 8b 85 a0 01
	00 00		 mov	 rax, QWORD PTR _Ostr$[rbp]
  00213	48 8b 00	 mov	 rax, QWORD PTR [rax]
  00216	48 63 40 04	 movsxd	 rax, DWORD PTR [rax+4]
  0021a	48 8b 8d a0 01
	00 00		 mov	 rcx, QWORD PTR _Ostr$[rbp]
  00221	48 03 c8	 add	 rcx, rax
  00224	48 8b c1	 mov	 rax, rcx
  00227	48 8b c8	 mov	 rcx, rax
  0022a	ff 15 00 00 00
	00		 call	 QWORD PTR __imp_?rdbuf@?$basic_ios@DU?$char_traits@D@std@@@std@@QEBAPEAV?$basic_streambuf@DU?$char_traits@D@std@@@2@XZ
  00230	4c 8b 45 28	 mov	 r8, QWORD PTR _Count$[rbp]
  00234	48 8b 95 a8 01
	00 00		 mov	 rdx, QWORD PTR _Val$[rbp]
  0023b	48 8b c8	 mov	 rcx, rax
  0023e	ff 15 00 00 00
	00		 call	 QWORD PTR __imp_?sputn@?$basic_streambuf@DU?$char_traits@D@std@@@std@@QEAA_JPEBD_J@Z
  00244	48 89 85 68 01
	00 00		 mov	 QWORD PTR tv295[rbp], rax
  0024b	48 8b 45 28	 mov	 rax, QWORD PTR _Count$[rbp]
  0024f	48 39 85 68 01
	00 00		 cmp	 QWORD PTR tv295[rbp], rax
  00256	74 09		 je	 SHORT $LN13@operator

; 792  :             _State |= ios_base::badbit;

  00258	8b 45 04	 mov	 eax, DWORD PTR _State$[rbp]
  0025b	83 c8 04	 or	 eax, 4
  0025e	89 45 04	 mov	 DWORD PTR _State$[rbp], eax
$LN13@operator:

; 793  :         }
; 794  : 
; 795  :         if (_State == ios_base::goodbit) {

  00261	83 7d 04 00	 cmp	 DWORD PTR _State$[rbp], 0
  00265	0f 85 a5 00 00
	00		 jne	 $LN14@operator

; 796  :             for (; 0 < _Pad; --_Pad) { // pad on right

  0026b	eb 0b		 jmp	 SHORT $LN7@operator
$LN5@operator:
  0026d	48 8b 45 48	 mov	 rax, QWORD PTR _Pad$[rbp]
  00271	48 ff c8	 dec	 rax
  00274	48 89 45 48	 mov	 QWORD PTR _Pad$[rbp], rax
$LN7@operator:
  00278	48 83 7d 48 00	 cmp	 QWORD PTR _Pad$[rbp], 0
  0027d	0f 8e 8d 00 00
	00		 jle	 $LN14@operator

; 797  :                 if (_Traits::eq_int_type(_Traits::eof(), _Ostr.rdbuf()->sputc(_Ostr.fill()))) {

  00283	48 8b 85 a0 01
	00 00		 mov	 rax, QWORD PTR _Ostr$[rbp]
  0028a	48 8b 00	 mov	 rax, QWORD PTR [rax]
  0028d	48 63 40 04	 movsxd	 rax, DWORD PTR [rax+4]
  00291	48 8b 8d a0 01
	00 00		 mov	 rcx, QWORD PTR _Ostr$[rbp]
  00298	48 03 c8	 add	 rcx, rax
  0029b	48 8b c1	 mov	 rax, rcx
  0029e	48 8b c8	 mov	 rcx, rax
  002a1	ff 15 00 00 00
	00		 call	 QWORD PTR __imp_?fill@?$basic_ios@DU?$char_traits@D@std@@@std@@QEBADXZ
  002a7	88 85 64 01 00
	00		 mov	 BYTE PTR tv283[rbp], al
  002ad	48 8b 8d a0 01
	00 00		 mov	 rcx, QWORD PTR _Ostr$[rbp]
  002b4	48 8b 09	 mov	 rcx, QWORD PTR [rcx]
  002b7	48 63 49 04	 movsxd	 rcx, DWORD PTR [rcx+4]
  002bb	48 8b 95 a0 01
	00 00		 mov	 rdx, QWORD PTR _Ostr$[rbp]
  002c2	48 03 d1	 add	 rdx, rcx
  002c5	48 8b ca	 mov	 rcx, rdx
  002c8	ff 15 00 00 00
	00		 call	 QWORD PTR __imp_?rdbuf@?$basic_ios@DU?$char_traits@D@std@@@std@@QEBAPEAV?$basic_streambuf@DU?$char_traits@D@std@@@2@XZ
  002ce	0f b6 8d 64 01
	00 00		 movzx	 ecx, BYTE PTR tv283[rbp]
  002d5	0f b6 d1	 movzx	 edx, cl
  002d8	48 8b c8	 mov	 rcx, rax
  002db	ff 15 00 00 00
	00		 call	 QWORD PTR __imp_?sputc@?$basic_streambuf@DU?$char_traits@D@std@@@std@@QEAAHD@Z
  002e1	89 85 68 01 00
	00		 mov	 DWORD PTR tv296[rbp], eax
  002e7	e8 00 00 00 00	 call	 ?eof@?$_Narrow_char_traits@DH@std@@SAHXZ ; std::_Narrow_char_traits<char,int>::eof
  002ec	8b 95 68 01 00
	00		 mov	 edx, DWORD PTR tv296[rbp]
  002f2	8b c8		 mov	 ecx, eax
  002f4	e8 00 00 00 00	 call	 ?eq_int_type@?$_Narrow_char_traits@DH@std@@SA_NHH@Z ; std::_Narrow_char_traits<char,int>::eq_int_type
  002f9	0f b6 c0	 movzx	 eax, al
  002fc	85 c0		 test	 eax, eax
  002fe	74 0b		 je	 SHORT $LN15@operator

; 798  :                     _State |= ios_base::badbit; // insertion failed, quit

  00300	8b 45 04	 mov	 eax, DWORD PTR _State$[rbp]
  00303	83 c8 04	 or	 eax, 4
  00306	89 45 04	 mov	 DWORD PTR _State$[rbp], eax

; 799  :                     break;

  00309	eb 05		 jmp	 SHORT $LN14@operator
$LN15@operator:

; 800  :                 }
; 801  :             }

  0030b	e9 5d ff ff ff	 jmp	 $LN5@operator
$LN14@operator:

; 802  :         }
; 803  : 
; 804  :         _Ostr.width(0);

  00310	48 8b 85 a0 01
	00 00		 mov	 rax, QWORD PTR _Ostr$[rbp]
  00317	48 8b 00	 mov	 rax, QWORD PTR [rax]
  0031a	48 63 40 04	 movsxd	 rax, DWORD PTR [rax+4]
  0031e	48 8b 8d a0 01
	00 00		 mov	 rcx, QWORD PTR _Ostr$[rbp]
  00325	48 03 c8	 add	 rcx, rax
  00328	48 8b c1	 mov	 rax, rcx
  0032b	33 d2		 xor	 edx, edx
  0032d	48 8b c8	 mov	 rcx, rax
  00330	ff 15 00 00 00
	00		 call	 QWORD PTR __imp_?width@ios_base@std@@QEAA_J_J@Z
  00336	90		 npad	 1
  00337	eb 00		 jmp	 SHORT $LN9@operator
$LN23@operator:
$LN9@operator:

; 805  :         _CATCH_IO_(ios_base, _Ostr)
; 806  :     }
; 807  : 
; 808  :     _Ostr.setstate(_State);

  00339	48 8b 85 a0 01
	00 00		 mov	 rax, QWORD PTR _Ostr$[rbp]
  00340	48 8b 00	 mov	 rax, QWORD PTR [rax]
  00343	48 63 40 04	 movsxd	 rax, DWORD PTR [rax+4]
  00347	48 8b 8d a0 01
	00 00		 mov	 rcx, QWORD PTR _Ostr$[rbp]
  0034e	48 03 c8	 add	 rcx, rax
  00351	48 8b c1	 mov	 rax, rcx
  00354	45 33 c0	 xor	 r8d, r8d
  00357	8b 55 04	 mov	 edx, DWORD PTR _State$[rbp]
  0035a	48 8b c8	 mov	 rcx, rax
  0035d	ff 15 00 00 00
	00		 call	 QWORD PTR __imp_?setstate@?$basic_ios@DU?$char_traits@D@std@@@std@@QEAAXH_N@Z
  00363	90		 npad	 1

; 809  :     return _Ostr;

  00364	48 8b 85 a0 01
	00 00		 mov	 rax, QWORD PTR _Ostr$[rbp]
  0036b	48 89 85 58 01
	00 00		 mov	 QWORD PTR $T4[rbp], rax
  00372	48 8d 4d 68	 lea	 rcx, QWORD PTR _Ok$[rbp]
  00376	e8 00 00 00 00	 call	 ??1sentry@?$basic_ostream@DU?$char_traits@D@std@@@std@@QEAA@XZ ; std::basic_ostream<char,std::char_traits<char> >::sentry::~sentry
  0037b	48 8b 85 58 01
	00 00		 mov	 rax, QWORD PTR $T4[rbp]

; 810  : }

  00382	48 8b f8	 mov	 rdi, rax
  00385	48 8d 4d e0	 lea	 rcx, QWORD PTR [rbp-32]
  00389	48 8d 15 00 00
	00 00		 lea	 rdx, OFFSET FLAT:??$?6U?$char_traits@D@std@@@std@@YAAEAV?$basic_ostream@DU?$char_traits@D@std@@@0@AEAV10@PEBD@Z$rtcFrameData
  00390	e8 00 00 00 00	 call	 _RTC_CheckStackVars
  00395	48 8b c7	 mov	 rax, rdi
  00398	48 8b 8d 70 01
	00 00		 mov	 rcx, QWORD PTR __$ArrayPad$[rbp]
  0039f	48 33 cd	 xor	 rcx, rbp
  003a2	e8 00 00 00 00	 call	 __security_check_cookie
  003a7	48 8d a5 88 01
	00 00		 lea	 rsp, QWORD PTR [rbp+392]
  003ae	5f		 pop	 rdi
  003af	5d		 pop	 rbp
  003b0	c3		 ret	 0
??$?6U?$char_traits@D@std@@@std@@YAAEAV?$basic_ostream@DU?$char_traits@D@std@@@0@AEAV10@PEBD@Z ENDP ; std::operator<<<std::char_traits<char> >
_TEXT	ENDS
; Function compile flags: /Odtp /RTCsu /ZI
;	COMDAT text$x
text$x	SEGMENT
_State$ = 4
_Count$ = 40
_Pad$ = 72
_Ok$ = 104
$T4 = 344
tv283 = 356
tv285 = 356
tv137 = 360
tv139 = 360
tv295 = 360
tv296 = 360
__$ArrayPad$ = 368
_Ostr$ = 416
_Val$ = 424
?dtor$0@?0???$?6U?$char_traits@D@std@@@std@@YAAEAV?$basic_ostream@DU?$char_traits@D@std@@@0@AEAV10@PEBD@Z@4HA PROC ; `std::operator<<<std::char_traits<char> >'::`1'::dtor$0
  00000	48 89 4c 24 08	 mov	 QWORD PTR [rsp+8], rcx
  00005	48 89 54 24 10	 mov	 QWORD PTR [rsp+16], rdx
  0000a	55		 push	 rbp
  0000b	57		 push	 rdi
  0000c	48 83 ec 28	 sub	 rsp, 40			; 00000028H
  00010	48 8d 6a 20	 lea	 rbp, QWORD PTR [rdx+32]
  00014	48 8d 4d 68	 lea	 rcx, QWORD PTR _Ok$[rbp]
  00018	e8 00 00 00 00	 call	 ??1sentry@?$basic_ostream@DU?$char_traits@D@std@@@std@@QEAA@XZ ; std::basic_ostream<char,std::char_traits<char> >::sentry::~sentry
  0001d	48 83 c4 28	 add	 rsp, 40			; 00000028H
  00021	5f		 pop	 rdi
  00022	5d		 pop	 rbp
  00023	c3		 ret	 0
?dtor$0@?0???$?6U?$char_traits@D@std@@@std@@YAAEAV?$basic_ostream@DU?$char_traits@D@std@@@0@AEAV10@PEBD@Z@4HA ENDP ; `std::operator<<<std::char_traits<char> >'::`1'::dtor$0
text$x	ENDS
; Function compile flags: /Odtp /RTCsu /ZI
;	COMDAT text$x
text$x	SEGMENT
_State$ = 4
_Count$ = 40
_Pad$ = 72
_Ok$ = 104
$T4 = 344
tv283 = 356
tv285 = 356
tv137 = 360
tv139 = 360
tv295 = 360
tv296 = 360
__$ArrayPad$ = 368
_Ostr$ = 416
_Val$ = 424
?catch$1@?0???$?6U?$char_traits@D@std@@@std@@YAAEAV?$basic_ostream@DU?$char_traits@D@std@@@0@AEAV10@PEBD@Z@4HA PROC ; `std::operator<<<std::char_traits<char> >'::`1'::catch$1

; 805  :         _CATCH_IO_(ios_base, _Ostr)

  00000	48 89 4c 24 08	 mov	 QWORD PTR [rsp+8], rcx
  00005	48 89 54 24 10	 mov	 QWORD PTR [rsp+16], rdx
  0000a	55		 push	 rbp
  0000b	57		 push	 rdi
  0000c	48 83 ec 28	 sub	 rsp, 40			; 00000028H
  00010	48 8d 6a 20	 lea	 rbp, QWORD PTR [rdx+32]
__catch$??$?6U?$char_traits@D@std@@@std@@YAAEAV?$basic_ostream@DU?$char_traits@D@std@@@0@AEAV10@PEBD@Z$0:
  00014	48 8b 85 a0 01
	00 00		 mov	 rax, QWORD PTR _Ostr$[rbp]
  0001b	48 8b 00	 mov	 rax, QWORD PTR [rax]
  0001e	48 63 40 04	 movsxd	 rax, DWORD PTR [rax+4]
  00022	48 8b 8d a0 01
	00 00		 mov	 rcx, QWORD PTR _Ostr$[rbp]
  00029	48 03 c8	 add	 rcx, rax
  0002c	48 8b c1	 mov	 rax, rcx
  0002f	41 b0 01	 mov	 r8b, 1
  00032	ba 04 00 00 00	 mov	 edx, 4
  00037	48 8b c8	 mov	 rcx, rax
  0003a	ff 15 00 00 00
	00		 call	 QWORD PTR __imp_?setstate@?$basic_ios@DU?$char_traits@D@std@@@std@@QEAAXH_N@Z
  00040	90		 npad	 1
  00041	48 8d 05 00 00
	00 00		 lea	 rax, $LN23@catch$1
  00048	48 83 c4 28	 add	 rsp, 40			; 00000028H
  0004c	5f		 pop	 rdi
  0004d	5d		 pop	 rbp
  0004e	c3		 ret	 0
  0004f	cc		 int	 3
?catch$1@?0???$?6U?$char_traits@D@std@@@std@@YAAEAV?$basic_ostream@DU?$char_traits@D@std@@@0@AEAV10@PEBD@Z@4HA ENDP ; `std::operator<<<std::char_traits<char> >'::`1'::catch$1
text$x	ENDS
; Function compile flags: /Odtp /RTCsu /ZI
; File C:\Users\Honor\Desktop\universitet\1_curse\2_sem\narkevich\lab1\task1_data_proccesing\main.cpp
;	COMDAT main
_TEXT	SEGMENT
months$ = 8
data$ = 84
happyData$ = 116
day$ = 148
dayNumber$ = 180
month$ = 212
year$ = 244
happyDayDiff$ = 276
happyMonth$ = 308
happyDay$ = 340
happyDayNumber$ = 372
happyYear$ = 404
valid$ = 436
visFlag$ = 468
birthMonths$13 = 504
daysLeft$14 = 580
$T15 = 996
$T16 = 1028
$T17 = 1060
$T18 = 1092
$T19 = 1124
$T20 = 1156
tv82 = 1172
tv150 = 1172
tv256 = 1172
tv231 = 1176
__$ArrayPad$ = 1184
main	PROC						; COMDAT

; 9    : int main() {

$LN52:
  00000	40 55		 push	 rbp
  00002	57		 push	 rdi
  00003	48 81 ec d8 04
	00 00		 sub	 rsp, 1240		; 000004d8H
  0000a	48 8d 6c 24 20	 lea	 rbp, QWORD PTR [rsp+32]
  0000f	48 8d 7c 24 20	 lea	 rdi, QWORD PTR [rsp+32]
  00014	b9 ce 00 00 00	 mov	 ecx, 206		; 000000ceH
  00019	b8 cc cc cc cc	 mov	 eax, -858993460		; ccccccccH
  0001e	f3 ab		 rep stosd
  00020	48 8b 05 00 00
	00 00		 mov	 rax, QWORD PTR __security_cookie
  00027	48 33 c5	 xor	 rax, rbp
  0002a	48 89 85 a0 04
	00 00		 mov	 QWORD PTR __$ArrayPad$[rbp], rax
  00031	c6 85 64 04 00
	00 00		 mov	 BYTE PTR $T19[rbp], 0
  00038	c6 85 24 04 00
	00 00		 mov	 BYTE PTR $T17[rbp], 0
  0003f	c6 85 84 04 00
	00 00		 mov	 BYTE PTR $T20[rbp], 0
  00046	c6 85 44 04 00
	00 00		 mov	 BYTE PTR $T18[rbp], 0
  0004d	c6 85 04 04 00
	00 00		 mov	 BYTE PTR $T16[rbp], 0
  00054	c6 85 e4 03 00
	00 00		 mov	 BYTE PTR $T15[rbp], 0
  0005b	48 8d 0d 00 00
	00 00		 lea	 rcx, OFFSET FLAT:__77FA1031_main@cpp
  00062	e8 00 00 00 00	 call	 __CheckForDebuggerJustMyCode
  00067	90		 npad	 1

; 10   :     setlocale(LC_CTYPE, "rus");

  00068	48 8d 15 00 00
	00 00		 lea	 rdx, OFFSET FLAT:??_C@_03EJKFMIHK@rus@
  0006f	b9 02 00 00 00	 mov	 ecx, 2
  00074	ff 15 00 00 00
	00		 call	 QWORD PTR __imp_setlocale
  0007a	90		 npad	 1

; 11   :     int months[12] = { 31, 28, 31, 30, 31, 30, 31, 31, 30, 31, 30, 31 };

  0007b	c7 45 08 1f 00
	00 00		 mov	 DWORD PTR months$[rbp], 31
  00082	c7 45 0c 1c 00
	00 00		 mov	 DWORD PTR months$[rbp+4], 28
  00089	c7 45 10 1f 00
	00 00		 mov	 DWORD PTR months$[rbp+8], 31
  00090	c7 45 14 1e 00
	00 00		 mov	 DWORD PTR months$[rbp+12], 30
  00097	c7 45 18 1f 00
	00 00		 mov	 DWORD PTR months$[rbp+16], 31
  0009e	c7 45 1c 1e 00
	00 00		 mov	 DWORD PTR months$[rbp+20], 30
  000a5	c7 45 20 1f 00
	00 00		 mov	 DWORD PTR months$[rbp+24], 31
  000ac	c7 45 24 1f 00
	00 00		 mov	 DWORD PTR months$[rbp+28], 31
  000b3	c7 45 28 1e 00
	00 00		 mov	 DWORD PTR months$[rbp+32], 30
  000ba	c7 45 2c 1f 00
	00 00		 mov	 DWORD PTR months$[rbp+36], 31
  000c1	c7 45 30 1e 00
	00 00		 mov	 DWORD PTR months$[rbp+40], 30
  000c8	c7 45 34 1f 00
	00 00		 mov	 DWORD PTR months$[rbp+44], 31
$LN4@main:

; 12   :     int data, happyData;
; 13   :     int day, dayNumber, month, year, happyDayDiff, happyMonth, happyDay, happyDayNumber, happyYear;
; 14   :     bool valid, visFlag;
; 15   : 
; 16   :     do {
; 17   :         valid = true;

  000cf	c6 85 b4 01 00
	00 01		 mov	 BYTE PTR valid$[rbp], 1

; 18   : 
; 19   :         cout << "    : ";

  000d6	48 8d 15 00 00
	00 00		 lea	 rdx, OFFSET FLAT:??_C@_0CC@GJFPIFCJ@?B?b?e?d?h?r?e?5?d?$OA?r?s?5?b?5?t?n?p?l?$OA?r?e?5?D?D?L?L?C?C?C?C@
  000dd	48 8b 0d 00 00
	00 00		 mov	 rcx, QWORD PTR __imp_?cout@std@@3V?$basic_ostream@DU?$char_traits@D@std@@@1@A
  000e4	e8 00 00 00 00	 call	 ??$?6U?$char_traits@D@std@@@std@@YAAEAV?$basic_ostream@DU?$char_traits@D@std@@@0@AEAV10@PEBD@Z ; std::operator<<<std::char_traits<char> >
  000e9	90		 npad	 1

; 20   :         if (!isValid(data)) {

  000ea	48 8d 4d 54	 lea	 rcx, QWORD PTR data$[rbp]
  000ee	e8 00 00 00 00	 call	 ?isValid@@YA_NAEAH@Z	; isValid
  000f3	0f b6 c0	 movzx	 eax, al
  000f6	85 c0		 test	 eax, eax
  000f8	75 0c		 jne	 SHORT $LN5@main

; 21   :             valid = false;

  000fa	c6 85 b4 01 00
	00 00		 mov	 BYTE PTR valid$[rbp], 0

; 22   :             continue;

  00101	e9 d5 04 00 00	 jmp	 $LN2@main
$LN5@main:

; 23   :         }
; 24   : 
; 25   :         day = data / 1000000;

  00106	8b 45 54	 mov	 eax, DWORD PTR data$[rbp]
  00109	99		 cdq
  0010a	b9 40 42 0f 00	 mov	 ecx, 1000000		; 000f4240H
  0010f	f7 f9		 idiv	 ecx
  00111	c6 85 e4 03 00
	00 01		 mov	 BYTE PTR $T15[rbp], 1
  00118	89 85 94 00 00
	00		 mov	 DWORD PTR day$[rbp], eax

; 26   :         month = (data / 10000) % 100;

  0011e	8b 45 54	 mov	 eax, DWORD PTR data$[rbp]
  00121	99		 cdq
  00122	b9 10 27 00 00	 mov	 ecx, 10000		; 00002710H
  00127	f7 f9		 idiv	 ecx
  00129	99		 cdq
  0012a	b9 64 00 00 00	 mov	 ecx, 100		; 00000064H
  0012f	f7 f9		 idiv	 ecx
  00131	8b c2		 mov	 eax, edx
  00133	c6 85 04 04 00
	00 01		 mov	 BYTE PTR $T16[rbp], 1
  0013a	89 85 d4 00 00
	00		 mov	 DWORD PTR month$[rbp], eax

; 27   :         year = data % 10000;

  00140	8b 45 54	 mov	 eax, DWORD PTR data$[rbp]
  00143	99		 cdq
  00144	b9 10 27 00 00	 mov	 ecx, 10000		; 00002710H
  00149	f7 f9		 idiv	 ecx
  0014b	8b c2		 mov	 eax, edx
  0014d	c6 85 24 04 00
	00 01		 mov	 BYTE PTR $T17[rbp], 1
  00154	89 85 f4 00 00
	00		 mov	 DWORD PTR year$[rbp], eax

; 28   : 
; 29   :         visFlag = visokos(year);

  0015a	80 bd 24 04 00
	00 00		 cmp	 BYTE PTR $T17[rbp], 0
  00161	75 0d		 jne	 SHORT $LN25@main
  00163	48 8d 0d 00 00
	00 00		 lea	 rcx, OFFSET FLAT:main$rtcName$0
  0016a	e8 00 00 00 00	 call	 _RTC_UninitUse
  0016f	90		 npad	 1
$LN25@main:
  00170	8b 8d f4 00 00
	00		 mov	 ecx, DWORD PTR year$[rbp]
  00176	e8 00 00 00 00	 call	 ?visokos@@YA_NH@Z	; visokos
  0017b	c6 85 44 04 00
	00 01		 mov	 BYTE PTR $T18[rbp], 1
  00182	88 85 d4 01 00
	00		 mov	 BYTE PTR visFlag$[rbp], al

; 30   :         months[1] = visFlag ? 29 : 28;

  00188	80 bd 44 04 00
	00 00		 cmp	 BYTE PTR $T18[rbp], 0
  0018f	75 0d		 jne	 SHORT $LN26@main
  00191	48 8d 0d 00 00
	00 00		 lea	 rcx, OFFSET FLAT:main$rtcName$1
  00198	e8 00 00 00 00	 call	 _RTC_UninitUse
  0019d	90		 npad	 1
$LN26@main:
  0019e	0f b6 85 d4 01
	00 00		 movzx	 eax, BYTE PTR visFlag$[rbp]
  001a5	85 c0		 test	 eax, eax
  001a7	74 0c		 je	 SHORT $LN17@main
  001a9	c7 85 94 04 00
	00 1d 00 00 00	 mov	 DWORD PTR tv82[rbp], 29
  001b3	eb 0a		 jmp	 SHORT $LN18@main
$LN17@main:
  001b5	c7 85 94 04 00
	00 1c 00 00 00	 mov	 DWORD PTR tv82[rbp], 28
$LN18@main:
  001bf	b8 04 00 00 00	 mov	 eax, 4
  001c4	48 6b c0 01	 imul	 rax, rax, 1
  001c8	8b 8d 94 04 00
	00		 mov	 ecx, DWORD PTR tv82[rbp]
  001ce	89 4c 05 08	 mov	 DWORD PTR months$[rbp+rax], ecx

; 31   : 
; 32   :         if (!checkDate(day, month, year, months)) {

  001d2	80 bd 24 04 00
	00 00		 cmp	 BYTE PTR $T17[rbp], 0
  001d9	75 0d		 jne	 SHORT $LN27@main
  001db	48 8d 0d 00 00
	00 00		 lea	 rcx, OFFSET FLAT:main$rtcName$0
  001e2	e8 00 00 00 00	 call	 _RTC_UninitUse
  001e7	90		 npad	 1
$LN27@main:
  001e8	80 bd 04 04 00
	00 00		 cmp	 BYTE PTR $T16[rbp], 0
  001ef	75 0d		 jne	 SHORT $LN28@main
  001f1	48 8d 0d 00 00
	00 00		 lea	 rcx, OFFSET FLAT:main$rtcName$2
  001f8	e8 00 00 00 00	 call	 _RTC_UninitUse
  001fd	90		 npad	 1
$LN28@main:
  001fe	80 bd e4 03 00
	00 00		 cmp	 BYTE PTR $T15[rbp], 0
  00205	75 0d		 jne	 SHORT $LN29@main
  00207	48 8d 0d 00 00
	00 00		 lea	 rcx, OFFSET FLAT:main$rtcName$3
  0020e	e8 00 00 00 00	 call	 _RTC_UninitUse
  00213	90		 npad	 1
$LN29@main:
  00214	4c 8d 4d 08	 lea	 r9, QWORD PTR months$[rbp]
  00218	44 8b 85 f4 00
	00 00		 mov	 r8d, DWORD PTR year$[rbp]
  0021f	8b 95 d4 00 00
	00		 mov	 edx, DWORD PTR month$[rbp]
  00225	8b 8d 94 00 00
	00		 mov	 ecx, DWORD PTR day$[rbp]
  0022b	e8 00 00 00 00	 call	 ?checkDate@@YA_NHHHPEAH@Z ; checkDate
  00230	0f b6 c0	 movzx	 eax, al
  00233	85 c0		 test	 eax, eax
  00235	75 30		 jne	 SHORT $LN6@main

; 33   :             cout << "  !" << endl;

  00237	48 8d 15 00 00
	00 00		 lea	 rdx, OFFSET FLAT:??_C@_0BL@DBPAMPKJ@?M?e?j?n?p?p?e?j?r?m?$OA?$PP?5?r?e?j?s?y?$OA?$PP?5?d?$OA?r?$OA?$CB@
  0023e	48 8b 0d 00 00
	00 00		 mov	 rcx, QWORD PTR __imp_?cout@std@@3V?$basic_ostream@DU?$char_traits@D@std@@@1@A
  00245	e8 00 00 00 00	 call	 ??$?6U?$char_traits@D@std@@@std@@YAAEAV?$basic_ostream@DU?$char_traits@D@std@@@0@AEAV10@PEBD@Z ; std::operator<<<std::char_traits<char> >
  0024a	48 8d 15 00 00
	00 00		 lea	 rdx, OFFSET FLAT:??$endl@DU?$char_traits@D@std@@@std@@YAAEAV?$basic_ostream@DU?$char_traits@D@std@@@0@AEAV10@@Z ; std::endl<char,std::char_traits<char> >
  00251	48 8b c8	 mov	 rcx, rax
  00254	ff 15 00 00 00
	00		 call	 QWORD PTR __imp_??6?$basic_ostream@DU?$char_traits@D@std@@@std@@QEAAAEAV01@P6AAEAV01@AEAV01@@Z@Z
  0025a	90		 npad	 1

; 34   :             valid = false;

  0025b	c6 85 b4 01 00
	00 00		 mov	 BYTE PTR valid$[rbp], 0

; 35   :             continue;

  00262	e9 74 03 00 00	 jmp	 $LN2@main
$LN6@main:

; 36   :         }
; 37   : 
; 38   :         cout << "      : ";

  00267	48 8d 15 00 00
	00 00		 lea	 rdx, OFFSET FLAT:??_C@_0DC@FBLNNKIM@?B?b?e?d?h?r?e?5?d?$OA?r?s?5?b?$OA?x?e?c?n?5?p?n?f?d?e?m?h?$PP?5?b?5@
  0026e	48 8b 0d 00 00
	00 00		 mov	 rcx, QWORD PTR __imp_?cout@std@@3V?$basic_ostream@DU?$char_traits@D@std@@@1@A
  00275	e8 00 00 00 00	 call	 ??$?6U?$char_traits@D@std@@@std@@YAAEAV?$basic_ostream@DU?$char_traits@D@std@@@0@AEAV10@PEBD@Z ; std::operator<<<std::char_traits<char> >
  0027a	90		 npad	 1

; 39   :         if (!isValid(happyData)) {

  0027b	48 8d 4d 74	 lea	 rcx, QWORD PTR happyData$[rbp]
  0027f	e8 00 00 00 00	 call	 ?isValid@@YA_NAEAH@Z	; isValid
  00284	0f b6 c0	 movzx	 eax, al
  00287	85 c0		 test	 eax, eax
  00289	75 0c		 jne	 SHORT $LN7@main

; 40   :             valid = false;

  0028b	c6 85 b4 01 00
	00 00		 mov	 BYTE PTR valid$[rbp], 0

; 41   :             continue;

  00292	e9 44 03 00 00	 jmp	 $LN2@main
$LN7@main:

; 42   :         }
; 43   : 
; 44   :         happyDay = happyData / 1000000;

  00297	8b 45 74	 mov	 eax, DWORD PTR happyData$[rbp]
  0029a	99		 cdq
  0029b	b9 40 42 0f 00	 mov	 ecx, 1000000		; 000f4240H
  002a0	f7 f9		 idiv	 ecx
  002a2	c6 85 64 04 00
	00 01		 mov	 BYTE PTR $T19[rbp], 1
  002a9	89 85 54 01 00
	00		 mov	 DWORD PTR happyDay$[rbp], eax

; 45   :         happyMonth = (happyData / 10000) % 100;

  002af	8b 45 74	 mov	 eax, DWORD PTR happyData$[rbp]
  002b2	99		 cdq
  002b3	b9 10 27 00 00	 mov	 ecx, 10000		; 00002710H
  002b8	f7 f9		 idiv	 ecx
  002ba	99		 cdq
  002bb	b9 64 00 00 00	 mov	 ecx, 100		; 00000064H
  002c0	f7 f9		 idiv	 ecx
  002c2	8b c2		 mov	 eax, edx
  002c4	c6 85 84 04 00
	00 01		 mov	 BYTE PTR $T20[rbp], 1
  002cb	89 85 34 01 00
	00		 mov	 DWORD PTR happyMonth$[rbp], eax

; 46   :         happyYear = happyData % 10000;

  002d1	8b 45 74	 mov	 eax, DWORD PTR happyData$[rbp]
  002d4	99		 cdq
  002d5	b9 10 27 00 00	 mov	 ecx, 10000		; 00002710H
  002da	f7 f9		 idiv	 ecx
  002dc	8b c2		 mov	 eax, edx
  002de	89 85 94 01 00
	00		 mov	 DWORD PTR happyYear$[rbp], eax

; 47   : 
; 48   :         if (happyDay == 29 && happyMonth == 2) {

  002e4	80 bd 64 04 00
	00 00		 cmp	 BYTE PTR $T19[rbp], 0
  002eb	75 0d		 jne	 SHORT $LN30@main
  002ed	48 8d 0d 00 00
	00 00		 lea	 rcx, OFFSET FLAT:main$rtcName$4
  002f4	e8 00 00 00 00	 call	 _RTC_UninitUse
  002f9	90		 npad	 1
$LN30@main:
  002fa	83 bd 54 01 00
	00 1d		 cmp	 DWORD PTR happyDay$[rbp], 29
  00301	75 4f		 jne	 SHORT $LN8@main
  00303	80 bd 84 04 00
	00 00		 cmp	 BYTE PTR $T20[rbp], 0
  0030a	75 0d		 jne	 SHORT $LN31@main
  0030c	48 8d 0d 00 00
	00 00		 lea	 rcx, OFFSET FLAT:main$rtcName$5
  00313	e8 00 00 00 00	 call	 _RTC_UninitUse
  00318	90		 npad	 1
$LN31@main:
  00319	83 bd 34 01 00
	00 02		 cmp	 DWORD PTR happyMonth$[rbp], 2
  00320	75 30		 jne	 SHORT $LN8@main

; 49   :             cout << "   " << endl;

  00322	48 8d 15 00 00
	00 00		 lea	 rdx, OFFSET FLAT:??_C@_0BL@PBANEPHD@?B?b?e?d?h?r?e?5?o?e?p?e?m?e?q?e?m?m?s?$PO?5?d?$OA?r?s?5@
  00329	48 8b 0d 00 00
	00 00		 mov	 rcx, QWORD PTR __imp_?cout@std@@3V?$basic_ostream@DU?$char_traits@D@std@@@1@A
  00330	e8 00 00 00 00	 call	 ??$?6U?$char_traits@D@std@@@std@@YAAEAV?$basic_ostream@DU?$char_traits@D@std@@@0@AEAV10@PEBD@Z ; std::operator<<<std::char_traits<char> >
  00335	48 8d 15 00 00
	00 00		 lea	 rdx, OFFSET FLAT:??$endl@DU?$char_traits@D@std@@@std@@YAAEAV?$basic_ostream@DU?$char_traits@D@std@@@0@AEAV10@@Z ; std::endl<char,std::char_traits<char> >
  0033c	48 8b c8	 mov	 rcx, rax
  0033f	ff 15 00 00 00
	00		 call	 QWORD PTR __imp_??6?$basic_ostream@DU?$char_traits@D@std@@@std@@QEAAAEAV01@P6AAEAV01@AEAV01@@Z@Z
  00345	90		 npad	 1

; 50   :             valid = false;

  00346	c6 85 b4 01 00
	00 00		 mov	 BYTE PTR valid$[rbp], 0

; 51   :             continue;

  0034d	e9 89 02 00 00	 jmp	 $LN2@main
$LN8@main:

; 52   :         }
; 53   : 
; 54   :         int birthMonths[12] = { 31, 28, 31, 30, 31, 30, 31, 31, 30, 31, 30, 31 };

  00352	c7 85 f8 01 00
	00 1f 00 00 00	 mov	 DWORD PTR birthMonths$13[rbp], 31
  0035c	c7 85 fc 01 00
	00 1c 00 00 00	 mov	 DWORD PTR birthMonths$13[rbp+4], 28
  00366	c7 85 00 02 00
	00 1f 00 00 00	 mov	 DWORD PTR birthMonths$13[rbp+8], 31
  00370	c7 85 04 02 00
	00 1e 00 00 00	 mov	 DWORD PTR birthMonths$13[rbp+12], 30
  0037a	c7 85 08 02 00
	00 1f 00 00 00	 mov	 DWORD PTR birthMonths$13[rbp+16], 31
  00384	c7 85 0c 02 00
	00 1e 00 00 00	 mov	 DWORD PTR birthMonths$13[rbp+20], 30
  0038e	c7 85 10 02 00
	00 1f 00 00 00	 mov	 DWORD PTR birthMonths$13[rbp+24], 31
  00398	c7 85 14 02 00
	00 1f 00 00 00	 mov	 DWORD PTR birthMonths$13[rbp+28], 31
  003a2	c7 85 18 02 00
	00 1e 00 00 00	 mov	 DWORD PTR birthMonths$13[rbp+32], 30
  003ac	c7 85 1c 02 00
	00 1f 00 00 00	 mov	 DWORD PTR birthMonths$13[rbp+36], 31
  003b6	c7 85 20 02 00
	00 1e 00 00 00	 mov	 DWORD PTR birthMonths$13[rbp+40], 30
  003c0	c7 85 24 02 00
	00 1f 00 00 00	 mov	 DWORD PTR birthMonths$13[rbp+44], 31

; 55   :         birthMonths[1] = visokos(happyYear) ? 29 : 28;

  003ca	8b 8d 94 01 00
	00		 mov	 ecx, DWORD PTR happyYear$[rbp]
  003d0	e8 00 00 00 00	 call	 ?visokos@@YA_NH@Z	; visokos
  003d5	0f b6 c0	 movzx	 eax, al
  003d8	85 c0		 test	 eax, eax
  003da	74 0c		 je	 SHORT $LN19@main
  003dc	c7 85 94 04 00
	00 1d 00 00 00	 mov	 DWORD PTR tv150[rbp], 29
  003e6	eb 0a		 jmp	 SHORT $LN20@main
$LN19@main:
  003e8	c7 85 94 04 00
	00 1c 00 00 00	 mov	 DWORD PTR tv150[rbp], 28
$LN20@main:
  003f2	b8 04 00 00 00	 mov	 eax, 4
  003f7	48 6b c0 01	 imul	 rax, rax, 1
  003fb	8b 8d 94 04 00
	00		 mov	 ecx, DWORD PTR tv150[rbp]
  00401	89 8c 05 f8 01
	00 00		 mov	 DWORD PTR birthMonths$13[rbp+rax], ecx

; 56   : 
; 57   :         if (!checkDate(happyDay, happyMonth, happyYear, birthMonths)) {

  00408	80 bd 84 04 00
	00 00		 cmp	 BYTE PTR $T20[rbp], 0
  0040f	75 0d		 jne	 SHORT $LN32@main
  00411	48 8d 0d 00 00
	00 00		 lea	 rcx, OFFSET FLAT:main$rtcName$5
  00418	e8 00 00 00 00	 call	 _RTC_UninitUse
  0041d	90		 npad	 1
$LN32@main:
  0041e	80 bd 64 04 00
	00 00		 cmp	 BYTE PTR $T19[rbp], 0
  00425	75 0d		 jne	 SHORT $LN33@main
  00427	48 8d 0d 00 00
	00 00		 lea	 rcx, OFFSET FLAT:main$rtcName$4
  0042e	e8 00 00 00 00	 call	 _RTC_UninitUse
  00433	90		 npad	 1
$LN33@main:
  00434	4c 8d 8d f8 01
	00 00		 lea	 r9, QWORD PTR birthMonths$13[rbp]
  0043b	44 8b 85 94 01
	00 00		 mov	 r8d, DWORD PTR happyYear$[rbp]
  00442	8b 95 34 01 00
	00		 mov	 edx, DWORD PTR happyMonth$[rbp]
  00448	8b 8d 54 01 00
	00		 mov	 ecx, DWORD PTR happyDay$[rbp]
  0044e	e8 00 00 00 00	 call	 ?checkDate@@YA_NHHHPEAH@Z ; checkDate
  00453	0f b6 c0	 movzx	 eax, al
  00456	85 c0		 test	 eax, eax
  00458	75 30		 jne	 SHORT $LN9@main

; 58   :             cout << "  !" << endl;

  0045a	48 8d 15 00 00
	00 00		 lea	 rdx, OFFSET FLAT:??_C@_0BM@PAANHPGK@?M?e?j?n?p?p?e?j?r?m?$OA?$PP?5?d?$OA?r?$OA?5?p?n?f?d?e?m?h?$PP?$CB@
  00461	48 8b 0d 00 00
	00 00		 mov	 rcx, QWORD PTR __imp_?cout@std@@3V?$basic_ostream@DU?$char_traits@D@std@@@1@A
  00468	e8 00 00 00 00	 call	 ??$?6U?$char_traits@D@std@@@std@@YAAEAV?$basic_ostream@DU?$char_traits@D@std@@@0@AEAV10@PEBD@Z ; std::operator<<<std::char_traits<char> >
  0046d	48 8d 15 00 00
	00 00		 lea	 rdx, OFFSET FLAT:??$endl@DU?$char_traits@D@std@@@std@@YAAEAV?$basic_ostream@DU?$char_traits@D@std@@@0@AEAV10@@Z ; std::endl<char,std::char_traits<char> >
  00474	48 8b c8	 mov	 rcx, rax
  00477	ff 15 00 00 00
	00		 call	 QWORD PTR __imp_??6?$basic_ostream@DU?$char_traits@D@std@@@std@@QEAAAEAV01@P6AAEAV01@AEAV01@@Z@Z
  0047d	90		 npad	 1

; 59   :             valid = false;

  0047e	c6 85 b4 01 00
	00 00		 mov	 BYTE PTR valid$[rbp], 0

; 60   :             continue;

  00485	e9 51 01 00 00	 jmp	 $LN2@main
$LN9@main:

; 61   :         }
; 62   : 
; 63   :         if (happyYear > year ||
; 64   :             (happyYear == year && happyMonth > month) ||

  0048a	80 bd 24 04 00
	00 00		 cmp	 BYTE PTR $T17[rbp], 0
  00491	75 0d		 jne	 SHORT $LN34@main
  00493	48 8d 0d 00 00
	00 00		 lea	 rcx, OFFSET FLAT:main$rtcName$0
  0049a	e8 00 00 00 00	 call	 _RTC_UninitUse
  0049f	90		 npad	 1
$LN34@main:
  004a0	8b 85 f4 00 00
	00		 mov	 eax, DWORD PTR year$[rbp]
  004a6	39 85 94 01 00
	00		 cmp	 DWORD PTR happyYear$[rbp], eax
  004ac	0f 8f fe 00 00
	00		 jg	 $LN11@main
  004b2	80 bd 24 04 00
	00 00		 cmp	 BYTE PTR $T17[rbp], 0
  004b9	75 0d		 jne	 SHORT $LN35@main
  004bb	48 8d 0d 00 00
	00 00		 lea	 rcx, OFFSET FLAT:main$rtcName$0
  004c2	e8 00 00 00 00	 call	 _RTC_UninitUse
  004c7	90		 npad	 1
$LN35@main:
  004c8	8b 85 f4 00 00
	00		 mov	 eax, DWORD PTR year$[rbp]
  004ce	39 85 94 01 00
	00		 cmp	 DWORD PTR happyYear$[rbp], eax
  004d4	75 3e		 jne	 SHORT $LN12@main
  004d6	80 bd 84 04 00
	00 00		 cmp	 BYTE PTR $T20[rbp], 0
  004dd	75 0d		 jne	 SHORT $LN36@main
  004df	48 8d 0d 00 00
	00 00		 lea	 rcx, OFFSET FLAT:main$rtcName$5
  004e6	e8 00 00 00 00	 call	 _RTC_UninitUse
  004eb	90		 npad	 1
$LN36@main:
  004ec	80 bd 04 04 00
	00 00		 cmp	 BYTE PTR $T16[rbp], 0
  004f3	75 0d		 jne	 SHORT $LN37@main
  004f5	48 8d 0d 00 00
	00 00		 lea	 rcx, OFFSET FLAT:main$rtcName$2
  004fc	e8 00 00 00 00	 call	 _RTC_UninitUse
  00501	90		 npad	 1
$LN37@main:
  00502	8b 85 d4 00 00
	00		 mov	 eax, DWORD PTR month$[rbp]
  00508	39 85 34 01 00
	00		 cmp	 DWORD PTR happyMonth$[rbp], eax
  0050e	0f 8f 9c 00 00
	00		 jg	 $LN11@main
$LN12@main:
  00514	80 bd 24 04 00
	00 00		 cmp	 BYTE PTR $T17[rbp], 0
  0051b	75 0d		 jne	 SHORT $LN38@main
  0051d	48 8d 0d 00 00
	00 00		 lea	 rcx, OFFSET FLAT:main$rtcName$0
  00524	e8 00 00 00 00	 call	 _RTC_UninitUse
  00529	90		 npad	 1
$LN38@main:
  0052a	8b 85 f4 00 00
	00		 mov	 eax, DWORD PTR year$[rbp]
  00530	39 85 94 01 00
	00		 cmp	 DWORD PTR happyYear$[rbp], eax
  00536	0f 85 9f 00 00
	00		 jne	 $LN10@main
  0053c	80 bd 84 04 00
	00 00		 cmp	 BYTE PTR $T20[rbp], 0
  00543	75 0d		 jne	 SHORT $LN39@main
  00545	48 8d 0d 00 00
	00 00		 lea	 rcx, OFFSET FLAT:main$rtcName$5
  0054c	e8 00 00 00 00	 call	 _RTC_UninitUse
  00551	90		 npad	 1
$LN39@main:
  00552	80 bd 04 04 00
	00 00		 cmp	 BYTE PTR $T16[rbp], 0
  00559	75 0d		 jne	 SHORT $LN40@main
  0055b	48 8d 0d 00 00
	00 00		 lea	 rcx, OFFSET FLAT:main$rtcName$2
  00562	e8 00 00 00 00	 call	 _RTC_UninitUse
  00567	90		 npad	 1
$LN40@main:
  00568	8b 85 d4 00 00
	00		 mov	 eax, DWORD PTR month$[rbp]
  0056e	39 85 34 01 00
	00		 cmp	 DWORD PTR happyMonth$[rbp], eax
  00574	75 65		 jne	 SHORT $LN10@main
  00576	80 bd 64 04 00
	00 00		 cmp	 BYTE PTR $T19[rbp], 0
  0057d	75 0d		 jne	 SHORT $LN41@main
  0057f	48 8d 0d 00 00
	00 00		 lea	 rcx, OFFSET FLAT:main$rtcName$4
  00586	e8 00 00 00 00	 call	 _RTC_UninitUse
  0058b	90		 npad	 1
$LN41@main:
  0058c	80 bd e4 03 00
	00 00		 cmp	 BYTE PTR $T15[rbp], 0
  00593	75 0d		 jne	 SHORT $LN42@main
  00595	48 8d 0d 00 00
	00 00		 lea	 rcx, OFFSET FLAT:main$rtcName$3
  0059c	e8 00 00 00 00	 call	 _RTC_UninitUse
  005a1	90		 npad	 1
$LN42@main:
  005a2	8b 85 94 00 00
	00		 mov	 eax, DWORD PTR day$[rbp]
  005a8	39 85 54 01 00
	00		 cmp	 DWORD PTR happyDay$[rbp], eax
  005ae	7e 2b		 jle	 SHORT $LN10@main
$LN11@main:

; 65   :             (happyYear == year && happyMonth == month && happyDay > day)) {
; 66   :             cout << "   !" << endl;

  005b0	48 8d 15 00 00
	00 00		 lea	 rdx, OFFSET FLAT:??_C@_0BE@OADAADDF@?B?$PL?5?e?y?e?5?m?e?5?p?n?d?h?k?h?q?$PM?$CB@
  005b7	48 8b 0d 00 00
	00 00		 mov	 rcx, QWORD PTR __imp_?cout@std@@3V?$basic_ostream@DU?$char_traits@D@std@@@1@A
  005be	e8 00 00 00 00	 call	 ??$?6U?$char_traits@D@std@@@std@@YAAEAV?$basic_ostream@DU?$char_traits@D@std@@@0@AEAV10@PEBD@Z ; std::operator<<<std::char_traits<char> >
  005c3	48 8d 15 00 00
	00 00		 lea	 rdx, OFFSET FLAT:??$endl@DU?$char_traits@D@std@@@std@@YAAEAV?$basic_ostream@DU?$char_traits@D@std@@@0@AEAV10@@Z ; std::endl<char,std::char_traits<char> >
  005ca	48 8b c8	 mov	 rcx, rax
  005cd	ff 15 00 00 00
	00		 call	 QWORD PTR __imp_??6?$basic_ostream@DU?$char_traits@D@std@@@std@@QEAAAEAV01@P6AAEAV01@AEAV01@@Z@Z
  005d3	90		 npad	 1

; 67   :             valid = false;

  005d4	c6 85 b4 01 00
	00 00		 mov	 BYTE PTR valid$[rbp], 0
$LN10@main:
$LN2@main:

; 68   :             continue;
; 69   :         }
; 70   : 
; 71   :     } while (!valid);

  005db	0f b6 85 b4 01
	00 00		 movzx	 eax, BYTE PTR valid$[rbp]
  005e2	85 c0		 test	 eax, eax
  005e4	0f 84 e5 fa ff
	ff		 je	 $LN4@main

; 72   : 
; 73   :     cout << "\n : " << day << "." << month << "." << year << endl;

  005ea	80 bd 24 04 00
	00 00		 cmp	 BYTE PTR $T17[rbp], 0
  005f1	75 0d		 jne	 SHORT $LN43@main
  005f3	48 8d 0d 00 00
	00 00		 lea	 rcx, OFFSET FLAT:main$rtcName$0
  005fa	e8 00 00 00 00	 call	 _RTC_UninitUse
  005ff	90		 npad	 1
$LN43@main:
  00600	80 bd 04 04 00
	00 00		 cmp	 BYTE PTR $T16[rbp], 0
  00607	75 0d		 jne	 SHORT $LN44@main
  00609	48 8d 0d 00 00
	00 00		 lea	 rcx, OFFSET FLAT:main$rtcName$2
  00610	e8 00 00 00 00	 call	 _RTC_UninitUse
  00615	90		 npad	 1
$LN44@main:
  00616	80 bd e4 03 00
	00 00		 cmp	 BYTE PTR $T15[rbp], 0
  0061d	75 0d		 jne	 SHORT $LN45@main
  0061f	48 8d 0d 00 00
	00 00		 lea	 rcx, OFFSET FLAT:main$rtcName$3
  00626	e8 00 00 00 00	 call	 _RTC_UninitUse
  0062b	90		 npad	 1
$LN45@main:
  0062c	48 8d 15 00 00
	00 00		 lea	 rdx, OFFSET FLAT:??_C@_0BC@PIDAOMPC@?6?D?$OA?r?$OA?5?j?n?p?p?e?j?r?m?$OA?3?5@
  00633	48 8b 0d 00 00
	00 00		 mov	 rcx, QWORD PTR __imp_?cout@std@@3V?$basic_ostream@DU?$char_traits@D@std@@@1@A
  0063a	e8 00 00 00 00	 call	 ??$?6U?$char_traits@D@std@@@std@@YAAEAV?$basic_ostream@DU?$char_traits@D@std@@@0@AEAV10@PEBD@Z ; std::operator<<<std::char_traits<char> >
  0063f	8b 95 94 00 00
	00		 mov	 edx, DWORD PTR day$[rbp]
  00645	48 8b c8	 mov	 rcx, rax
  00648	ff 15 00 00 00
	00		 call	 QWORD PTR __imp_??6?$basic_ostream@DU?$char_traits@D@std@@@std@@QEAAAEAV01@H@Z
  0064e	48 8d 15 00 00
	00 00		 lea	 rdx, OFFSET FLAT:??_C@_01LFCBOECM@?4@
  00655	48 8b c8	 mov	 rcx, rax
  00658	e8 00 00 00 00	 call	 ??$?6U?$char_traits@D@std@@@std@@YAAEAV?$basic_ostream@DU?$char_traits@D@std@@@0@AEAV10@PEBD@Z ; std::operator<<<std::char_traits<char> >
  0065d	8b 95 d4 00 00
	00		 mov	 edx, DWORD PTR month$[rbp]
  00663	48 8b c8	 mov	 rcx, rax
  00666	ff 15 00 00 00
	00		 call	 QWORD PTR __imp_??6?$basic_ostream@DU?$char_traits@D@std@@@std@@QEAAAEAV01@H@Z
  0066c	48 8d 15 00 00
	00 00		 lea	 rdx, OFFSET FLAT:??_C@_01LFCBOECM@?4@
  00673	48 8b c8	 mov	 rcx, rax
  00676	e8 00 00 00 00	 call	 ??$?6U?$char_traits@D@std@@@std@@YAAEAV?$basic_ostream@DU?$char_traits@D@std@@@0@AEAV10@PEBD@Z ; std::operator<<<std::char_traits<char> >
  0067b	8b 95 f4 00 00
	00		 mov	 edx, DWORD PTR year$[rbp]
  00681	48 8b c8	 mov	 rcx, rax
  00684	ff 15 00 00 00
	00		 call	 QWORD PTR __imp_??6?$basic_ostream@DU?$char_traits@D@std@@@std@@QEAAAEAV01@H@Z
  0068a	48 8d 15 00 00
	00 00		 lea	 rdx, OFFSET FLAT:??$endl@DU?$char_traits@D@std@@@std@@YAAEAV?$basic_ostream@DU?$char_traits@D@std@@@0@AEAV10@@Z ; std::endl<char,std::char_traits<char> >
  00691	48 8b c8	 mov	 rcx, rax
  00694	ff 15 00 00 00
	00		 call	 QWORD PTR __imp_??6?$basic_ostream@DU?$char_traits@D@std@@@std@@QEAAAEAV01@P6AAEAV01@AEAV01@@Z@Z
  0069a	90		 npad	 1

; 74   :     cout << (visFlag ? " " : "  ") << endl;

  0069b	80 bd 44 04 00
	00 00		 cmp	 BYTE PTR $T18[rbp], 0
  006a2	75 0d		 jne	 SHORT $LN46@main
  006a4	48 8d 0d 00 00
	00 00		 lea	 rcx, OFFSET FLAT:main$rtcName$1
  006ab	e8 00 00 00 00	 call	 _RTC_UninitUse
  006b0	90		 npad	 1
$LN46@main:
  006b1	0f b6 85 d4 01
	00 00		 movzx	 eax, BYTE PTR visFlag$[rbp]
  006b8	85 c0		 test	 eax, eax
  006ba	74 10		 je	 SHORT $LN21@main
  006bc	48 8d 05 00 00
	00 00		 lea	 rax, OFFSET FLAT:??_C@_0P@KPEAGGJF@?C?n?d?5?b?h?q?n?j?n?q?m?$PL?i@
  006c3	48 89 85 98 04
	00 00		 mov	 QWORD PTR tv231[rbp], rax
  006ca	eb 0e		 jmp	 SHORT $LN22@main
$LN21@main:
  006cc	48 8d 05 00 00
	00 00		 lea	 rax, OFFSET FLAT:??_C@_0BC@GEBLIKEH@?C?n?d?5?m?e?5?b?h?q?n?j?n?q?m?$PL?i@
  006d3	48 89 85 98 04
	00 00		 mov	 QWORD PTR tv231[rbp], rax
$LN22@main:
  006da	48 8b 95 98 04
	00 00		 mov	 rdx, QWORD PTR tv231[rbp]
  006e1	48 8b 0d 00 00
	00 00		 mov	 rcx, QWORD PTR __imp_?cout@std@@3V?$basic_ostream@DU?$char_traits@D@std@@@1@A
  006e8	e8 00 00 00 00	 call	 ??$?6U?$char_traits@D@std@@@std@@YAAEAV?$basic_ostream@DU?$char_traits@D@std@@@0@AEAV10@PEBD@Z ; std::operator<<<std::char_traits<char> >
  006ed	48 8d 15 00 00
	00 00		 lea	 rdx, OFFSET FLAT:??$endl@DU?$char_traits@D@std@@@std@@YAAEAV?$basic_ostream@DU?$char_traits@D@std@@@0@AEAV10@@Z ; std::endl<char,std::char_traits<char> >
  006f4	48 8b c8	 mov	 rcx, rax
  006f7	ff 15 00 00 00
	00		 call	 QWORD PTR __imp_??6?$basic_ostream@DU?$char_traits@D@std@@@std@@QEAAAEAV01@P6AAEAV01@AEAV01@@Z@Z
  006fd	90		 npad	 1

; 75   : 
; 76   :     happyDayNumber = dayNum(happyDay, happyMonth, months);

  006fe	80 bd 84 04 00
	00 00		 cmp	 BYTE PTR $T20[rbp], 0
  00705	75 0d		 jne	 SHORT $LN47@main
  00707	48 8d 0d 00 00
	00 00		 lea	 rcx, OFFSET FLAT:main$rtcName$5
  0070e	e8 00 00 00 00	 call	 _RTC_UninitUse
  00713	90		 npad	 1
$LN47@main:
  00714	80 bd 64 04 00
	00 00		 cmp	 BYTE PTR $T19[rbp], 0
  0071b	75 0d		 jne	 SHORT $LN48@main
  0071d	48 8d 0d 00 00
	00 00		 lea	 rcx, OFFSET FLAT:main$rtcName$4
  00724	e8 00 00 00 00	 call	 _RTC_UninitUse
  00729	90		 npad	 1
$LN48@main:
  0072a	4c 8d 45 08	 lea	 r8, QWORD PTR months$[rbp]
  0072e	8b 95 34 01 00
	00		 mov	 edx, DWORD PTR happyMonth$[rbp]
  00734	8b 8d 54 01 00
	00		 mov	 ecx, DWORD PTR happyDay$[rbp]
  0073a	e8 00 00 00 00	 call	 ?dayNum@@YAHHHPEAH@Z	; dayNum
  0073f	89 85 74 01 00
	00		 mov	 DWORD PTR happyDayNumber$[rbp], eax

; 77   :     dayNumber = dayNum(day, month, months);

  00745	80 bd 04 04 00
	00 00		 cmp	 BYTE PTR $T16[rbp], 0
  0074c	75 0d		 jne	 SHORT $LN49@main
  0074e	48 8d 0d 00 00
	00 00		 lea	 rcx, OFFSET FLAT:main$rtcName$2
  00755	e8 00 00 00 00	 call	 _RTC_UninitUse
  0075a	90		 npad	 1
$LN49@main:
  0075b	80 bd e4 03 00
	00 00		 cmp	 BYTE PTR $T15[rbp], 0
  00762	75 0d		 jne	 SHORT $LN50@main
  00764	48 8d 0d 00 00
	00 00		 lea	 rcx, OFFSET FLAT:main$rtcName$3
  0076b	e8 00 00 00 00	 call	 _RTC_UninitUse
  00770	90		 npad	 1
$LN50@main:
  00771	4c 8d 45 08	 lea	 r8, QWORD PTR months$[rbp]
  00775	8b 95 d4 00 00
	00		 mov	 edx, DWORD PTR month$[rbp]
  0077b	8b 8d 94 00 00
	00		 mov	 ecx, DWORD PTR day$[rbp]
  00781	e8 00 00 00 00	 call	 ?dayNum@@YAHHHPEAH@Z	; dayNum
  00786	89 85 b4 00 00
	00		 mov	 DWORD PTR dayNumber$[rbp], eax

; 78   : 
; 79   :     cout << "     = " << dayNumber << endl;

  0078c	48 8d 15 00 00
	00 00		 lea	 rdx, OFFSET FLAT:??_C@_0BP@GMPPFCEC@?O?n?p?$PP?d?j?n?b?$PL?i?5?m?n?l?e?p?5?d?m?$PP?5?b?5?c?n?d?s?5?$DN?5@
  00793	48 8b 0d 00 00
	00 00		 mov	 rcx, QWORD PTR __imp_?cout@std@@3V?$basic_ostream@DU?$char_traits@D@std@@@1@A
  0079a	e8 00 00 00 00	 call	 ??$?6U?$char_traits@D@std@@@std@@YAAEAV?$basic_ostream@DU?$char_traits@D@std@@@0@AEAV10@PEBD@Z ; std::operator<<<std::char_traits<char> >
  0079f	8b 95 b4 00 00
	00		 mov	 edx, DWORD PTR dayNumber$[rbp]
  007a5	48 8b c8	 mov	 rcx, rax
  007a8	ff 15 00 00 00
	00		 call	 QWORD PTR __imp_??6?$basic_ostream@DU?$char_traits@D@std@@@std@@QEAAAEAV01@H@Z
  007ae	48 8d 15 00 00
	00 00		 lea	 rdx, OFFSET FLAT:??$endl@DU?$char_traits@D@std@@@std@@YAAEAV?$basic_ostream@DU?$char_traits@D@std@@@0@AEAV10@@Z ; std::endl<char,std::char_traits<char> >
  007b5	48 8b c8	 mov	 rcx, rax
  007b8	ff 15 00 00 00
	00		 call	 QWORD PTR __imp_??6?$basic_ostream@DU?$char_traits@D@std@@@std@@QEAAAEAV01@P6AAEAV01@AEAV01@@Z@Z
  007be	90		 npad	 1

; 80   : 
; 81   :     happyDayDiff = happyDayNumber - dayNumber;

  007bf	8b 85 b4 00 00
	00		 mov	 eax, DWORD PTR dayNumber$[rbp]
  007c5	8b 8d 74 01 00
	00		 mov	 ecx, DWORD PTR happyDayNumber$[rbp]
  007cb	2b c8		 sub	 ecx, eax
  007cd	8b c1		 mov	 eax, ecx
  007cf	89 85 14 01 00
	00		 mov	 DWORD PTR happyDayDiff$[rbp], eax

; 82   :     if (happyDayDiff < 0) {

  007d5	83 bd 14 01 00
	00 00		 cmp	 DWORD PTR happyDayDiff$[rbp], 0
  007dc	7d 65		 jge	 SHORT $LN13@main

; 83   :         int daysLeft = (visFlag ? 366 : 365) - dayNumber;

  007de	80 bd 44 04 00
	00 00		 cmp	 BYTE PTR $T18[rbp], 0
  007e5	75 0d		 jne	 SHORT $LN51@main
  007e7	48 8d 0d 00 00
	00 00		 lea	 rcx, OFFSET FLAT:main$rtcName$1
  007ee	e8 00 00 00 00	 call	 _RTC_UninitUse
  007f3	90		 npad	 1
$LN51@main:
  007f4	0f b6 85 d4 01
	00 00		 movzx	 eax, BYTE PTR visFlag$[rbp]
  007fb	85 c0		 test	 eax, eax
  007fd	74 0c		 je	 SHORT $LN23@main
  007ff	c7 85 94 04 00
	00 6e 01 00 00	 mov	 DWORD PTR tv256[rbp], 366 ; 0000016eH
  00809	eb 0a		 jmp	 SHORT $LN24@main
$LN23@main:
  0080b	c7 85 94 04 00
	00 6d 01 00 00	 mov	 DWORD PTR tv256[rbp], 365 ; 0000016dH
$LN24@main:
  00815	8b 85 b4 00 00
	00		 mov	 eax, DWORD PTR dayNumber$[rbp]
  0081b	8b 8d 94 04 00
	00		 mov	 ecx, DWORD PTR tv256[rbp]
  00821	2b c8		 sub	 ecx, eax
  00823	8b c1		 mov	 eax, ecx
  00825	89 85 44 02 00
	00		 mov	 DWORD PTR daysLeft$14[rbp], eax

; 84   :         happyDayDiff = daysLeft + happyDayNumber;

  0082b	8b 85 74 01 00
	00		 mov	 eax, DWORD PTR happyDayNumber$[rbp]
  00831	8b 8d 44 02 00
	00		 mov	 ecx, DWORD PTR daysLeft$14[rbp]
  00837	03 c8		 add	 ecx, eax
  00839	8b c1		 mov	 eax, ecx
  0083b	89 85 14 01 00
	00		 mov	 DWORD PTR happyDayDiff$[rbp], eax

; 85   :     }

  00841	eb 1d		 jmp	 SHORT $LN14@main
$LN13@main:

; 86   :     else if (happyDayDiff == 0) {

  00843	83 bd 14 01 00
	00 00		 cmp	 DWORD PTR happyDayDiff$[rbp], 0
  0084a	75 14		 jne	 SHORT $LN15@main

; 87   :         cout << "  !";

  0084c	48 8d 15 00 00
	00 00		 lea	 rdx, OFFSET FLAT:??_C@_0BH@NEDOCFPJ@?D?e?m?$PM?5?p?n?f?d?e?m?h?$PP?5?q?e?c?n?d?m?$PP?$CB@
  00853	48 8b 0d 00 00
	00 00		 mov	 rcx, QWORD PTR __imp_?cout@std@@3V?$basic_ostream@DU?$char_traits@D@std@@@1@A
  0085a	e8 00 00 00 00	 call	 ??$?6U?$char_traits@D@std@@@std@@YAAEAV?$basic_ostream@DU?$char_traits@D@std@@@0@AEAV10@PEBD@Z ; std::operator<<<std::char_traits<char> >
  0085f	90		 npad	 1
$LN15@main:
$LN14@main:

; 88   :     }
; 89   : 
; 90   :     cout << "\n    = " << happyDayDiff << endl;

  00860	48 8d 15 00 00
	00 00		 lea	 rdx, OFFSET FLAT:??_C@_0BJ@MPCGFPHD@?6?D?m?e?i?5?d?n?5?d?m?$PP?5?p?n?f?d?e?m?h?$PP?5?$DN?5@
  00867	48 8b 0d 00 00
	00 00		 mov	 rcx, QWORD PTR __imp_?cout@std@@3V?$basic_ostream@DU?$char_traits@D@std@@@1@A
  0086e	e8 00 00 00 00	 call	 ??$?6U?$char_traits@D@std@@@std@@YAAEAV?$basic_ostream@DU?$char_traits@D@std@@@0@AEAV10@PEBD@Z ; std::operator<<<std::char_traits<char> >
  00873	8b 95 14 01 00
	00		 mov	 edx, DWORD PTR happyDayDiff$[rbp]
  00879	48 8b c8	 mov	 rcx, rax
  0087c	ff 15 00 00 00
	00		 call	 QWORD PTR __imp_??6?$basic_ostream@DU?$char_traits@D@std@@@std@@QEAAAEAV01@H@Z
  00882	48 8d 15 00 00
	00 00		 lea	 rdx, OFFSET FLAT:??$endl@DU?$char_traits@D@std@@@std@@YAAEAV?$basic_ostream@DU?$char_traits@D@std@@@0@AEAV10@@Z ; std::endl<char,std::char_traits<char> >
  00889	48 8b c8	 mov	 rcx, rax
  0088c	ff 15 00 00 00
	00		 call	 QWORD PTR __imp_??6?$basic_ostream@DU?$char_traits@D@std@@@std@@QEAAAEAV01@P6AAEAV01@AEAV01@@Z@Z
  00892	90		 npad	 1

; 91   : 
; 92   :     return 0;

  00893	33 c0		 xor	 eax, eax

; 93   : }

  00895	8b f8		 mov	 edi, eax
  00897	48 8d 4d e0	 lea	 rcx, QWORD PTR [rbp-32]
  0089b	48 8d 15 00 00
	00 00		 lea	 rdx, OFFSET FLAT:main$rtcFrameData
  008a2	e8 00 00 00 00	 call	 _RTC_CheckStackVars
  008a7	8b c7		 mov	 eax, edi
  008a9	48 8b 8d a0 04
	00 00		 mov	 rcx, QWORD PTR __$ArrayPad$[rbp]
  008b0	48 33 cd	 xor	 rcx, rbp
  008b3	e8 00 00 00 00	 call	 __security_check_cookie
  008b8	48 8d a5 b8 04
	00 00		 lea	 rsp, QWORD PTR [rbp+1208]
  008bf	5f		 pop	 rdi
  008c0	5d		 pop	 rbp
  008c1	c3		 ret	 0
main	ENDP
_TEXT	ENDS
; Function compile flags: /Odtp /RTCsu /ZI
; File C:\Users\Honor\Desktop\universitet\1_curse\2_sem\narkevich\lab1\task1_data_proccesing\main.cpp
;	COMDAT ?checkDate@@YA_NHHHPEAH@Z
_TEXT	SEGMENT
day$ = 224
month$ = 232
year$ = 240
months$ = 248
?checkDate@@YA_NHHHPEAH@Z PROC				; checkDate, COMDAT

; 106  : bool checkDate(int day, int month, int year, int* months) {

$LN6:
  00000	4c 89 4c 24 20	 mov	 QWORD PTR [rsp+32], r9
  00005	44 89 44 24 18	 mov	 DWORD PTR [rsp+24], r8d
  0000a	89 54 24 10	 mov	 DWORD PTR [rsp+16], edx
  0000e	89 4c 24 08	 mov	 DWORD PTR [rsp+8], ecx
  00012	55		 push	 rbp
  00013	57		 push	 rdi
  00014	48 81 ec e8 00
	00 00		 sub	 rsp, 232		; 000000e8H
  0001b	48 8d 6c 24 20	 lea	 rbp, QWORD PTR [rsp+32]
  00020	48 8d 0d 00 00
	00 00		 lea	 rcx, OFFSET FLAT:__77FA1031_main@cpp
  00027	e8 00 00 00 00	 call	 __CheckForDebuggerJustMyCode
  0002c	90		 npad	 1

; 107  :     if (year <= 0 || month < 1 || month > 12 || day < 1)

  0002d	83 bd f0 00 00
	00 00		 cmp	 DWORD PTR year$[rbp], 0
  00034	7e 1b		 jle	 SHORT $LN3@checkDate
  00036	83 bd e8 00 00
	00 01		 cmp	 DWORD PTR month$[rbp], 1
  0003d	7c 12		 jl	 SHORT $LN3@checkDate
  0003f	83 bd e8 00 00
	00 0c		 cmp	 DWORD PTR month$[rbp], 12
  00046	7f 09		 jg	 SHORT $LN3@checkDate
  00048	83 bd e0 00 00
	00 01		 cmp	 DWORD PTR day$[rbp], 1
  0004f	7d 04		 jge	 SHORT $LN2@checkDate
$LN3@checkDate:

; 108  :         return false;

  00051	32 c0		 xor	 al, al
  00053	eb 22		 jmp	 SHORT $LN1@checkDate
$LN2@checkDate:

; 109  :     if (day > months[month - 1])

  00055	8b 85 e8 00 00
	00		 mov	 eax, DWORD PTR month$[rbp]
  0005b	ff c8		 dec	 eax
  0005d	48 98		 cdqe
  0005f	48 8b 8d f8 00
	00 00		 mov	 rcx, QWORD PTR months$[rbp]
  00066	8b 04 81	 mov	 eax, DWORD PTR [rcx+rax*4]
  00069	39 85 e0 00 00
	00		 cmp	 DWORD PTR day$[rbp], eax
  0006f	7e 04		 jle	 SHORT $LN4@checkDate

; 110  :         return false;

  00071	32 c0		 xor	 al, al
  00073	eb 02		 jmp	 SHORT $LN1@checkDate
$LN4@checkDate:

; 111  :     return true;

  00075	b0 01		 mov	 al, 1
$LN1@checkDate:

; 112  : }

  00077	48 8d a5 c8 00
	00 00		 lea	 rsp, QWORD PTR [rbp+200]
  0007e	5f		 pop	 rdi
  0007f	5d		 pop	 rbp
  00080	c3		 ret	 0
?checkDate@@YA_NHHHPEAH@Z ENDP				; checkDate
_TEXT	ENDS
; Function compile flags: /Odtp /RTCsu /ZI
; File C:\Users\Honor\Desktop\universitet\1_curse\2_sem\narkevich\lab1\task1_data_proccesing\main.cpp
;	COMDAT ?isValid@@YA_NAEAH@Z
_TEXT	SEGMENT
data$ = 224
?isValid@@YA_NAEAH@Z PROC				; isValid, COMDAT

; 95   : bool isValid(int& data) {

$LN4:
  00000	48 89 4c 24 08	 mov	 QWORD PTR [rsp+8], rcx
  00005	55		 push	 rbp
  00006	57		 push	 rdi
  00007	48 81 ec e8 00
	00 00		 sub	 rsp, 232		; 000000e8H
  0000e	48 8d 6c 24 20	 lea	 rbp, QWORD PTR [rsp+32]
  00013	48 8d 0d 00 00
	00 00		 lea	 rcx, OFFSET FLAT:__77FA1031_main@cpp
  0001a	e8 00 00 00 00	 call	 __CheckForDebuggerJustMyCode
  0001f	90		 npad	 1

; 96   :     cin >> data;

  00020	48 8b 95 e0 00
	00 00		 mov	 rdx, QWORD PTR data$[rbp]
  00027	48 8b 0d 00 00
	00 00		 mov	 rcx, QWORD PTR __imp_?cin@std@@3V?$basic_istream@DU?$char_traits@D@std@@@1@A
  0002e	ff 15 00 00 00
	00		 call	 QWORD PTR __imp_??5?$basic_istream@DU?$char_traits@D@std@@@std@@QEAAAEAV01@AEAH@Z
  00034	90		 npad	 1

; 97   :     if (cin.fail()) {

  00035	48 8b 05 00 00
	00 00		 mov	 rax, QWORD PTR __imp_?cin@std@@3V?$basic_istream@DU?$char_traits@D@std@@@1@A
  0003c	48 8b 00	 mov	 rax, QWORD PTR [rax]
  0003f	48 63 40 04	 movsxd	 rax, DWORD PTR [rax+4]
  00043	48 8b 0d 00 00
	00 00		 mov	 rcx, QWORD PTR __imp_?cin@std@@3V?$basic_istream@DU?$char_traits@D@std@@@1@A
  0004a	48 03 c8	 add	 rcx, rax
  0004d	48 8b c1	 mov	 rax, rcx
  00050	48 8b c8	 mov	 rcx, rax
  00053	ff 15 00 00 00
	00		 call	 QWORD PTR __imp_?fail@ios_base@std@@QEBA_NXZ
  00059	0f b6 c0	 movzx	 eax, al
  0005c	85 c0		 test	 eax, eax
  0005e	74 6b		 je	 SHORT $LN2@isValid

; 98   :         cout << "!  ." << endl;

  00060	48 8d 15 00 00
	00 00		 lea	 rdx, OFFSET FLAT:??_C@_0BH@OAAKFLBJ@?N?x?h?a?j?$OA?$CB?5?B?b?e?d?h?r?e?5?w?h?q?k?n?4@
  00067	48 8b 0d 00 00
	00 00		 mov	 rcx, QWORD PTR __imp_?cout@std@@3V?$basic_ostream@DU?$char_traits@D@std@@@1@A
  0006e	e8 00 00 00 00	 call	 ??$?6U?$char_traits@D@std@@@std@@YAAEAV?$basic_ostream@DU?$char_traits@D@std@@@0@AEAV10@PEBD@Z ; std::operator<<<std::char_traits<char> >
  00073	48 8d 15 00 00
	00 00		 lea	 rdx, OFFSET FLAT:??$endl@DU?$char_traits@D@std@@@std@@YAAEAV?$basic_ostream@DU?$char_traits@D@std@@@0@AEAV10@@Z ; std::endl<char,std::char_traits<char> >
  0007a	48 8b c8	 mov	 rcx, rax
  0007d	ff 15 00 00 00
	00		 call	 QWORD PTR __imp_??6?$basic_ostream@DU?$char_traits@D@std@@@std@@QEAAAEAV01@P6AAEAV01@AEAV01@@Z@Z
  00083	90		 npad	 1

; 99   :         cin.clear();

  00084	48 8b 05 00 00
	00 00		 mov	 rax, QWORD PTR __imp_?cin@std@@3V?$basic_istream@DU?$char_traits@D@std@@@1@A
  0008b	48 8b 00	 mov	 rax, QWORD PTR [rax]
  0008e	48 63 40 04	 movsxd	 rax, DWORD PTR [rax+4]
  00092	48 8b 0d 00 00
	00 00		 mov	 rcx, QWORD PTR __imp_?cin@std@@3V?$basic_istream@DU?$char_traits@D@std@@@1@A
  00099	48 03 c8	 add	 rcx, rax
  0009c	48 8b c1	 mov	 rax, rcx
  0009f	45 33 c0	 xor	 r8d, r8d
  000a2	33 d2		 xor	 edx, edx
  000a4	48 8b c8	 mov	 rcx, rax
  000a7	ff 15 00 00 00
	00		 call	 QWORD PTR __imp_?clear@?$basic_ios@DU?$char_traits@D@std@@@std@@QEAAXH_N@Z
  000ad	90		 npad	 1

; 100  :         cin.ignore(10000, '\n');

  000ae	41 b8 0a 00 00
	00		 mov	 r8d, 10
  000b4	ba 10 27 00 00	 mov	 edx, 10000		; 00002710H
  000b9	48 8b 0d 00 00
	00 00		 mov	 rcx, QWORD PTR __imp_?cin@std@@3V?$basic_istream@DU?$char_traits@D@std@@@1@A
  000c0	ff 15 00 00 00
	00		 call	 QWORD PTR __imp_?ignore@?$basic_istream@DU?$char_traits@D@std@@@std@@QEAAAEAV12@_JH@Z
  000c6	90		 npad	 1

; 101  :         return false;

  000c7	32 c0		 xor	 al, al
  000c9	eb 02		 jmp	 SHORT $LN1@isValid
$LN2@isValid:

; 102  :     }
; 103  :     return true;

  000cb	b0 01		 mov	 al, 1
$LN1@isValid:

; 104  : }

  000cd	48 8d a5 c8 00
	00 00		 lea	 rsp, QWORD PTR [rbp+200]
  000d4	5f		 pop	 rdi
  000d5	5d		 pop	 rbp
  000d6	c3		 ret	 0
?isValid@@YA_NAEAH@Z ENDP				; isValid
_TEXT	ENDS
; Function compile flags: /Odtp /RTCsu /ZI
; File C:\Users\Honor\Desktop\universitet\1_curse\2_sem\narkevich\lab1\task1_data_proccesing\main.cpp
;	COMDAT ?dayNum@@YAHHHPEAH@Z
_TEXT	SEGMENT
sum$ = 4
i$1 = 36
day$ = 288
month$ = 296
months$ = 304
?dayNum@@YAHHHPEAH@Z PROC				; dayNum, COMDAT

; 118  : int dayNum(int day, int month, int* months) {

$LN6:
  00000	4c 89 44 24 18	 mov	 QWORD PTR [rsp+24], r8
  00005	89 54 24 10	 mov	 DWORD PTR [rsp+16], edx
  00009	89 4c 24 08	 mov	 DWORD PTR [rsp+8], ecx
  0000d	55		 push	 rbp
  0000e	57		 push	 rdi
  0000f	48 81 ec 28 01
	00 00		 sub	 rsp, 296		; 00000128H
  00016	48 8d 6c 24 20	 lea	 rbp, QWORD PTR [rsp+32]
  0001b	48 8d 0d 00 00
	00 00		 lea	 rcx, OFFSET FLAT:__77FA1031_main@cpp
  00022	e8 00 00 00 00	 call	 __CheckForDebuggerJustMyCode
  00027	90		 npad	 1

; 119  :     int sum = 0;

  00028	c7 45 04 00 00
	00 00		 mov	 DWORD PTR sum$[rbp], 0

; 120  :     for (int i = 0; i < month - 1; i++) {

  0002f	c7 45 24 00 00
	00 00		 mov	 DWORD PTR i$1[rbp], 0
  00036	eb 08		 jmp	 SHORT $LN4@dayNum
$LN2@dayNum:
  00038	8b 45 24	 mov	 eax, DWORD PTR i$1[rbp]
  0003b	ff c0		 inc	 eax
  0003d	89 45 24	 mov	 DWORD PTR i$1[rbp], eax
$LN4@dayNum:
  00040	8b 85 28 01 00
	00		 mov	 eax, DWORD PTR month$[rbp]
  00046	ff c8		 dec	 eax
  00048	39 45 24	 cmp	 DWORD PTR i$1[rbp], eax
  0004b	7d 1a		 jge	 SHORT $LN3@dayNum

; 121  :         sum += months[i];

  0004d	48 63 45 24	 movsxd	 rax, DWORD PTR i$1[rbp]
  00051	48 8b 8d 30 01
	00 00		 mov	 rcx, QWORD PTR months$[rbp]
  00058	8b 04 81	 mov	 eax, DWORD PTR [rcx+rax*4]
  0005b	8b 4d 04	 mov	 ecx, DWORD PTR sum$[rbp]
  0005e	03 c8		 add	 ecx, eax
  00060	8b c1		 mov	 eax, ecx
  00062	89 45 04	 mov	 DWORD PTR sum$[rbp], eax

; 122  :     }

  00065	eb d1		 jmp	 SHORT $LN2@dayNum
$LN3@dayNum:

; 123  :     return sum + day;

  00067	8b 85 20 01 00
	00		 mov	 eax, DWORD PTR day$[rbp]
  0006d	8b 4d 04	 mov	 ecx, DWORD PTR sum$[rbp]
  00070	03 c8		 add	 ecx, eax
  00072	8b c1		 mov	 eax, ecx

; 124  : }

  00074	48 8d a5 08 01
	00 00		 lea	 rsp, QWORD PTR [rbp+264]
  0007b	5f		 pop	 rdi
  0007c	5d		 pop	 rbp
  0007d	c3		 ret	 0
?dayNum@@YAHHHPEAH@Z ENDP				; dayNum
_TEXT	ENDS
; Function compile flags: /Odtp /RTCsu /ZI
; File C:\Users\Honor\Desktop\universitet\1_curse\2_sem\narkevich\lab1\task1_data_proccesing\main.cpp
;	COMDAT ?visokos@@YA_NH@Z
_TEXT	SEGMENT
tv70 = 192
year$ = 240
?visokos@@YA_NH@Z PROC					; visokos, COMDAT

; 114  : bool visokos(int year) {

$LN6:
  00000	89 4c 24 08	 mov	 DWORD PTR [rsp+8], ecx
  00004	55		 push	 rbp
  00005	57		 push	 rdi
  00006	48 81 ec f8 00
	00 00		 sub	 rsp, 248		; 000000f8H
  0000d	48 8d 6c 24 20	 lea	 rbp, QWORD PTR [rsp+32]
  00012	48 8d 0d 00 00
	00 00		 lea	 rcx, OFFSET FLAT:__77FA1031_main@cpp
  00019	e8 00 00 00 00	 call	 __CheckForDebuggerJustMyCode
  0001e	90		 npad	 1

; 115  :     return (year % 4 == 0 && year % 100 != 0) || (year % 400 == 0);

  0001f	8b 85 f0 00 00
	00		 mov	 eax, DWORD PTR year$[rbp]
  00025	99		 cdq
  00026	83 e2 03	 and	 edx, 3
  00029	03 c2		 add	 eax, edx
  0002b	83 e0 03	 and	 eax, 3
  0002e	2b c2		 sub	 eax, edx
  00030	85 c0		 test	 eax, eax
  00032	75 14		 jne	 SHORT $LN3@visokos
  00034	8b 85 f0 00 00
	00		 mov	 eax, DWORD PTR year$[rbp]
  0003a	99		 cdq
  0003b	b9 64 00 00 00	 mov	 ecx, 100		; 00000064H
  00040	f7 f9		 idiv	 ecx
  00042	8b c2		 mov	 eax, edx
  00044	85 c0		 test	 eax, eax
  00046	75 20		 jne	 SHORT $LN4@visokos
$LN3@visokos:
  00048	8b 85 f0 00 00
	00		 mov	 eax, DWORD PTR year$[rbp]
  0004e	99		 cdq
  0004f	b9 90 01 00 00	 mov	 ecx, 400		; 00000190H
  00054	f7 f9		 idiv	 ecx
  00056	8b c2		 mov	 eax, edx
  00058	85 c0		 test	 eax, eax
  0005a	74 0c		 je	 SHORT $LN4@visokos
  0005c	c7 85 c0 00 00
	00 00 00 00 00	 mov	 DWORD PTR tv70[rbp], 0
  00066	eb 0a		 jmp	 SHORT $LN5@visokos
$LN4@visokos:
  00068	c7 85 c0 00 00
	00 01 00 00 00	 mov	 DWORD PTR tv70[rbp], 1
$LN5@visokos:
  00072	0f b6 85 c0 00
	00 00		 movzx	 eax, BYTE PTR tv70[rbp]

; 116  : }

  00079	48 8d a5 d8 00
	00 00		 lea	 rsp, QWORD PTR [rbp+216]
  00080	5f		 pop	 rdi
  00081	5d		 pop	 rbp
  00082	c3		 ret	 0
?visokos@@YA_NH@Z ENDP					; visokos
_TEXT	ENDS
; Function compile flags: /Odtp /RTCsu /ZI
; File C:\Program Files\Microsoft Visual Studio\2022\Community\VC\Tools\MSVC\14.44.35207\include\__msvc_string_view.hpp
;	COMDAT ?eof@?$_Narrow_char_traits@DH@std@@SAHXZ
_TEXT	SEGMENT
?eof@?$_Narrow_char_traits@DH@std@@SAHXZ PROC		; std::_Narrow_char_traits<char,int>::eof, COMDAT

; 529  :     _NODISCARD static constexpr int_type eof() noexcept {

$LN4:
  00000	40 55		 push	 rbp
  00002	57		 push	 rdi
  00003	48 81 ec e8 00
	00 00		 sub	 rsp, 232		; 000000e8H
  0000a	48 8d 6c 24 20	 lea	 rbp, QWORD PTR [rsp+32]
  0000f	48 8d 0d 00 00
	00 00		 lea	 rcx, OFFSET FLAT:__9C6F385E___msvc_string_view@hpp
  00016	e8 00 00 00 00	 call	 __CheckForDebuggerJustMyCode
  0001b	90		 npad	 1

; 530  :         return static_cast<int_type>(EOF);

  0001c	b8 ff ff ff ff	 mov	 eax, -1

; 531  :     }

  00021	48 8d a5 c8 00
	00 00		 lea	 rsp, QWORD PTR [rbp+200]
  00028	5f		 pop	 rdi
  00029	5d		 pop	 rbp
  0002a	c3		 ret	 0
?eof@?$_Narrow_char_traits@DH@std@@SAHXZ ENDP		; std::_Narrow_char_traits<char,int>::eof
_TEXT	ENDS
; Function compile flags: /Odtp /RTCsu /ZI
; File C:\Program Files\Microsoft Visual Studio\2022\Community\VC\Tools\MSVC\14.44.35207\include\__msvc_string_view.hpp
;	COMDAT ?eq_int_type@?$_Narrow_char_traits@DH@std@@SA_NHH@Z
_TEXT	SEGMENT
tv65 = 192
_Left$ = 240
_Right$ = 248
?eq_int_type@?$_Narrow_char_traits@DH@std@@SA_NHH@Z PROC ; std::_Narrow_char_traits<char,int>::eq_int_type, COMDAT

; 521  :     _NODISCARD static constexpr bool eq_int_type(const int_type _Left, const int_type _Right) noexcept {

$LN6:
  00000	89 54 24 10	 mov	 DWORD PTR [rsp+16], edx
  00004	89 4c 24 08	 mov	 DWORD PTR [rsp+8], ecx
  00008	55		 push	 rbp
  00009	57		 push	 rdi
  0000a	48 81 ec f8 00
	00 00		 sub	 rsp, 248		; 000000f8H
  00011	48 8d 6c 24 20	 lea	 rbp, QWORD PTR [rsp+32]
  00016	48 8d 0d 00 00
	00 00		 lea	 rcx, OFFSET FLAT:__9C6F385E___msvc_string_view@hpp
  0001d	e8 00 00 00 00	 call	 __CheckForDebuggerJustMyCode
  00022	90		 npad	 1

; 522  :         return _Left == _Right;

  00023	8b 85 f8 00 00
	00		 mov	 eax, DWORD PTR _Right$[rbp]
  00029	39 85 f0 00 00
	00		 cmp	 DWORD PTR _Left$[rbp], eax
  0002f	75 0c		 jne	 SHORT $LN3@eq_int_typ
  00031	c7 85 c0 00 00
	00 01 00 00 00	 mov	 DWORD PTR tv65[rbp], 1
  0003b	eb 0a		 jmp	 SHORT $LN4@eq_int_typ
$LN3@eq_int_typ:
  0003d	c7 85 c0 00 00
	00 00 00 00 00	 mov	 DWORD PTR tv65[rbp], 0
$LN4@eq_int_typ:
  00047	0f b6 85 c0 00
	00 00		 movzx	 eax, BYTE PTR tv65[rbp]

; 523  :     }

  0004e	48 8d a5 d8 00
	00 00		 lea	 rsp, QWORD PTR [rbp+216]
  00055	5f		 pop	 rdi
  00056	5d		 pop	 rbp
  00057	c3		 ret	 0
?eq_int_type@?$_Narrow_char_traits@DH@std@@SA_NHH@Z ENDP ; std::_Narrow_char_traits<char,int>::eq_int_type
_TEXT	ENDS
; Function compile flags: /Odtp /RTCsu /ZI
; File C:\Program Files\Microsoft Visual Studio\2022\Community\VC\Tools\MSVC\14.44.35207\include\__msvc_string_view.hpp
;	COMDAT ?length@?$_Narrow_char_traits@DH@std@@SA_KQEBD@Z
_TEXT	SEGMENT
_First$ = 224
?length@?$_Narrow_char_traits@DH@std@@SA_KQEBD@Z PROC	; std::_Narrow_char_traits<char,int>::length, COMDAT

; 443  :     _NODISCARD static _CONSTEXPR17 size_t length(_In_z_ const _Elem* const _First) noexcept /* strengthened */ {

$LN4:
  00000	48 89 4c 24 08	 mov	 QWORD PTR [rsp+8], rcx
  00005	55		 push	 rbp
  00006	57		 push	 rdi
  00007	48 81 ec e8 00
	00 00		 sub	 rsp, 232		; 000000e8H
  0000e	48 8d 6c 24 20	 lea	 rbp, QWORD PTR [rsp+32]
  00013	48 8d 0d 00 00
	00 00		 lea	 rcx, OFFSET FLAT:__9C6F385E___msvc_string_view@hpp
  0001a	e8 00 00 00 00	 call	 __CheckForDebuggerJustMyCode
  0001f	90		 npad	 1

; 444  :         // find length of null-terminated string
; 445  : #if _HAS_CXX17
; 446  : #ifdef __cpp_char8_t
; 447  :         if constexpr (is_same_v<_Elem, char8_t>) {
; 448  : #if _HAS_U8_INTRINSICS
; 449  :             return __builtin_u8strlen(_First);
; 450  : #else // ^^^ use u8 intrinsics / no u8 intrinsics vvv
; 451  :             return _Primary_char_traits::length(_First);
; 452  : #endif // ^^^ no u8 intrinsics ^^^
; 453  :         } else
; 454  : #endif // defined(__cpp_char8_t)
; 455  :         {
; 456  :             return __builtin_strlen(_First);
; 457  :         }
; 458  : #else // ^^^ _HAS_CXX17 / !_HAS_CXX17 vvv
; 459  :         return _CSTD strlen(reinterpret_cast<const char*>(_First));

  00020	48 8b 8d e0 00
	00 00		 mov	 rcx, QWORD PTR _First$[rbp]
  00027	e8 00 00 00 00	 call	 strlen

; 460  : #endif // ^^^ !_HAS_CXX17 ^^^
; 461  :     }

  0002c	48 8d a5 c8 00
	00 00		 lea	 rsp, QWORD PTR [rbp+200]
  00033	5f		 pop	 rdi
  00034	5d		 pop	 rbp
  00035	c3		 ret	 0
?length@?$_Narrow_char_traits@DH@std@@SA_KQEBD@Z ENDP	; std::_Narrow_char_traits<char,int>::length
_TEXT	ENDS
; Function compile flags: /Odtp /RTCsu /ZI
; File C:\Users\Honor\Desktop\universitet\1_curse\2_sem\narkevich\lab1\task1_data_proccesing\main.cpp
;	COMDAT ?__empty_global_delete@@YAXPEAX_K@Z
_TEXT	SEGMENT
__formal$ = 224
__formal$ = 232
?__empty_global_delete@@YAXPEAX_K@Z PROC		; __empty_global_delete, COMDAT

$LN3:
  00000	48 89 54 24 10	 mov	 QWORD PTR [rsp+16], rdx
  00005	48 89 4c 24 08	 mov	 QWORD PTR [rsp+8], rcx
  0000a	55		 push	 rbp
  0000b	57		 push	 rdi
  0000c	48 81 ec e8 00
	00 00		 sub	 rsp, 232		; 000000e8H
  00013	48 8d 6c 24 20	 lea	 rbp, QWORD PTR [rsp+32]
  00018	48 8d 0d 00 00
	00 00		 lea	 rcx, OFFSET FLAT:__77FA1031_main@cpp
  0001f	e8 00 00 00 00	 call	 __CheckForDebuggerJustMyCode
  00024	90		 npad	 1
  00025	48 8d a5 c8 00
	00 00		 lea	 rsp, QWORD PTR [rbp+200]
  0002c	5f		 pop	 rdi
  0002d	5d		 pop	 rbp
  0002e	c3		 ret	 0
?__empty_global_delete@@YAXPEAX_K@Z ENDP		; __empty_global_delete
_TEXT	ENDS
; Function compile flags: /Odtp /RTCsu /ZI
; File C:\Users\Honor\Desktop\universitet\1_curse\2_sem\narkevich\lab1\task1_data_proccesing\main.cpp
;	COMDAT ?__empty_global_delete@@YAXPEAX@Z
_TEXT	SEGMENT
__formal$ = 224
?__empty_global_delete@@YAXPEAX@Z PROC			; __empty_global_delete, COMDAT

$LN3:
  00000	48 89 4c 24 08	 mov	 QWORD PTR [rsp+8], rcx
  00005	55		 push	 rbp
  00006	57		 push	 rdi
  00007	48 81 ec e8 00
	00 00		 sub	 rsp, 232		; 000000e8H
  0000e	48 8d 6c 24 20	 lea	 rbp, QWORD PTR [rsp+32]
  00013	48 8d 0d 00 00
	00 00		 lea	 rcx, OFFSET FLAT:__77FA1031_main@cpp
  0001a	e8 00 00 00 00	 call	 __CheckForDebuggerJustMyCode
  0001f	90		 npad	 1
  00020	48 8d a5 c8 00
	00 00		 lea	 rsp, QWORD PTR [rbp+200]
  00027	5f		 pop	 rdi
  00028	5d		 pop	 rbp
  00029	c3		 ret	 0
?__empty_global_delete@@YAXPEAX@Z ENDP			; __empty_global_delete
_TEXT	ENDS
END
